
bufbomb:     file format elf32-i386


Disassembly of section .init:

08049000 <_init>:
 8049000:	f3 0f 1e fb          	endbr32 
 8049004:	53                   	push   %ebx
 8049005:	83 ec 08             	sub    $0x8,%esp
 8049008:	e8 d3 02 00 00       	call   80492e0 <__x86.get_pc_thunk.bx>
 804900d:	81 c3 f3 3f 00 00    	add    $0x3ff3,%ebx
 8049013:	8b 83 fc ff ff ff    	mov    -0x4(%ebx),%eax
 8049019:	85 c0                	test   %eax,%eax
 804901b:	74 02                	je     804901f <_init+0x1f>
 804901d:	ff d0                	call   *%eax
 804901f:	83 c4 08             	add    $0x8,%esp
 8049022:	5b                   	pop    %ebx
 8049023:	c3                   	ret    

Disassembly of section .plt:

08049030 <strcmp@plt-0x10>:
 8049030:	ff 35 04 d0 04 08    	push   0x804d004
 8049036:	ff 25 08 d0 04 08    	jmp    *0x804d008
 804903c:	00 00                	add    %al,(%eax)
	...

08049040 <strcmp@plt>:
 8049040:	ff 25 0c d0 04 08    	jmp    *0x804d00c
 8049046:	68 00 00 00 00       	push   $0x0
 804904b:	e9 e0 ff ff ff       	jmp    8049030 <_init+0x30>

08049050 <__libc_start_main@plt>:
 8049050:	ff 25 10 d0 04 08    	jmp    *0x804d010
 8049056:	68 08 00 00 00       	push   $0x8
 804905b:	e9 d0 ff ff ff       	jmp    8049030 <_init+0x30>

08049060 <read@plt>:
 8049060:	ff 25 14 d0 04 08    	jmp    *0x804d014
 8049066:	68 10 00 00 00       	push   $0x10
 804906b:	e9 c0 ff ff ff       	jmp    8049030 <_init+0x30>

08049070 <srandom@plt>:
 8049070:	ff 25 18 d0 04 08    	jmp    *0x804d018
 8049076:	68 18 00 00 00       	push   $0x18
 804907b:	e9 b0 ff ff ff       	jmp    8049030 <_init+0x30>

08049080 <printf@plt>:
 8049080:	ff 25 1c d0 04 08    	jmp    *0x804d01c
 8049086:	68 20 00 00 00       	push   $0x20
 804908b:	e9 a0 ff ff ff       	jmp    8049030 <_init+0x30>

08049090 <memmove@plt>:
 8049090:	ff 25 20 d0 04 08    	jmp    *0x804d020
 8049096:	68 28 00 00 00       	push   $0x28
 804909b:	e9 90 ff ff ff       	jmp    8049030 <_init+0x30>

080490a0 <strdup@plt>:
 80490a0:	ff 25 24 d0 04 08    	jmp    *0x804d024
 80490a6:	68 30 00 00 00       	push   $0x30
 80490ab:	e9 80 ff ff ff       	jmp    8049030 <_init+0x30>

080490b0 <memcpy@plt>:
 80490b0:	ff 25 28 d0 04 08    	jmp    *0x804d028
 80490b6:	68 38 00 00 00       	push   $0x38
 80490bb:	e9 70 ff ff ff       	jmp    8049030 <_init+0x30>

080490c0 <signal@plt>:
 80490c0:	ff 25 2c d0 04 08    	jmp    *0x804d02c
 80490c6:	68 40 00 00 00       	push   $0x40
 80490cb:	e9 60 ff ff ff       	jmp    8049030 <_init+0x30>

080490d0 <alarm@plt>:
 80490d0:	ff 25 30 d0 04 08    	jmp    *0x804d030
 80490d6:	68 48 00 00 00       	push   $0x48
 80490db:	e9 50 ff ff ff       	jmp    8049030 <_init+0x30>

080490e0 <__stack_chk_fail@plt>:
 80490e0:	ff 25 34 d0 04 08    	jmp    *0x804d034
 80490e6:	68 50 00 00 00       	push   $0x50
 80490eb:	e9 40 ff ff ff       	jmp    8049030 <_init+0x30>

080490f0 <htons@plt>:
 80490f0:	ff 25 38 d0 04 08    	jmp    *0x804d038
 80490f6:	68 58 00 00 00       	push   $0x58
 80490fb:	e9 30 ff ff ff       	jmp    8049030 <_init+0x30>

08049100 <fwrite@plt>:
 8049100:	ff 25 3c d0 04 08    	jmp    *0x804d03c
 8049106:	68 60 00 00 00       	push   $0x60
 804910b:	e9 20 ff ff ff       	jmp    8049030 <_init+0x30>

08049110 <strcpy@plt>:
 8049110:	ff 25 40 d0 04 08    	jmp    *0x804d040
 8049116:	68 68 00 00 00       	push   $0x68
 804911b:	e9 10 ff ff ff       	jmp    8049030 <_init+0x30>

08049120 <getpid@plt>:
 8049120:	ff 25 44 d0 04 08    	jmp    *0x804d044
 8049126:	68 70 00 00 00       	push   $0x70
 804912b:	e9 00 ff ff ff       	jmp    8049030 <_init+0x30>

08049130 <gethostname@plt>:
 8049130:	ff 25 48 d0 04 08    	jmp    *0x804d048
 8049136:	68 78 00 00 00       	push   $0x78
 804913b:	e9 f0 fe ff ff       	jmp    8049030 <_init+0x30>

08049140 <puts@plt>:
 8049140:	ff 25 4c d0 04 08    	jmp    *0x804d04c
 8049146:	68 80 00 00 00       	push   $0x80
 804914b:	e9 e0 fe ff ff       	jmp    8049030 <_init+0x30>

08049150 <exit@plt>:
 8049150:	ff 25 50 d0 04 08    	jmp    *0x804d050
 8049156:	68 88 00 00 00       	push   $0x88
 804915b:	e9 d0 fe ff ff       	jmp    8049030 <_init+0x30>

08049160 <srand@plt>:
 8049160:	ff 25 54 d0 04 08    	jmp    *0x804d054
 8049166:	68 90 00 00 00       	push   $0x90
 804916b:	e9 c0 fe ff ff       	jmp    8049030 <_init+0x30>

08049170 <mmap@plt>:
 8049170:	ff 25 58 d0 04 08    	jmp    *0x804d058
 8049176:	68 98 00 00 00       	push   $0x98
 804917b:	e9 b0 fe ff ff       	jmp    8049030 <_init+0x30>

08049180 <strlen@plt>:
 8049180:	ff 25 5c d0 04 08    	jmp    *0x804d05c
 8049186:	68 a0 00 00 00       	push   $0xa0
 804918b:	e9 a0 fe ff ff       	jmp    8049030 <_init+0x30>

08049190 <write@plt>:
 8049190:	ff 25 60 d0 04 08    	jmp    *0x804d060
 8049196:	68 a8 00 00 00       	push   $0xa8
 804919b:	e9 90 fe ff ff       	jmp    8049030 <_init+0x30>

080491a0 <getopt@plt>:
 80491a0:	ff 25 64 d0 04 08    	jmp    *0x804d064
 80491a6:	68 b0 00 00 00       	push   $0xb0
 80491ab:	e9 80 fe ff ff       	jmp    8049030 <_init+0x30>

080491b0 <strcasecmp@plt>:
 80491b0:	ff 25 68 d0 04 08    	jmp    *0x804d068
 80491b6:	68 b8 00 00 00       	push   $0xb8
 80491bb:	e9 70 fe ff ff       	jmp    8049030 <_init+0x30>

080491c0 <__isoc99_sscanf@plt>:
 80491c0:	ff 25 6c d0 04 08    	jmp    *0x804d06c
 80491c6:	68 c0 00 00 00       	push   $0xc0
 80491cb:	e9 60 fe ff ff       	jmp    8049030 <_init+0x30>

080491d0 <memset@plt>:
 80491d0:	ff 25 70 d0 04 08    	jmp    *0x804d070
 80491d6:	68 c8 00 00 00       	push   $0xc8
 80491db:	e9 50 fe ff ff       	jmp    8049030 <_init+0x30>

080491e0 <__errno_location@plt>:
 80491e0:	ff 25 74 d0 04 08    	jmp    *0x804d074
 80491e6:	68 d0 00 00 00       	push   $0xd0
 80491eb:	e9 40 fe ff ff       	jmp    8049030 <_init+0x30>

080491f0 <rand@plt>:
 80491f0:	ff 25 78 d0 04 08    	jmp    *0x804d078
 80491f6:	68 d8 00 00 00       	push   $0xd8
 80491fb:	e9 30 fe ff ff       	jmp    8049030 <_init+0x30>

08049200 <munmap@plt>:
 8049200:	ff 25 7c d0 04 08    	jmp    *0x804d07c
 8049206:	68 e0 00 00 00       	push   $0xe0
 804920b:	e9 20 fe ff ff       	jmp    8049030 <_init+0x30>

08049210 <sprintf@plt>:
 8049210:	ff 25 80 d0 04 08    	jmp    *0x804d080
 8049216:	68 e8 00 00 00       	push   $0xe8
 804921b:	e9 10 fe ff ff       	jmp    8049030 <_init+0x30>

08049220 <socket@plt>:
 8049220:	ff 25 84 d0 04 08    	jmp    *0x804d084
 8049226:	68 f0 00 00 00       	push   $0xf0
 804922b:	e9 00 fe ff ff       	jmp    8049030 <_init+0x30>

08049230 <getc@plt>:
 8049230:	ff 25 88 d0 04 08    	jmp    *0x804d088
 8049236:	68 f8 00 00 00       	push   $0xf8
 804923b:	e9 f0 fd ff ff       	jmp    8049030 <_init+0x30>

08049240 <random@plt>:
 8049240:	ff 25 8c d0 04 08    	jmp    *0x804d08c
 8049246:	68 00 01 00 00       	push   $0x100
 804924b:	e9 e0 fd ff ff       	jmp    8049030 <_init+0x30>

08049250 <gethostbyname@plt>:
 8049250:	ff 25 90 d0 04 08    	jmp    *0x804d090
 8049256:	68 08 01 00 00       	push   $0x108
 804925b:	e9 d0 fd ff ff       	jmp    8049030 <_init+0x30>

08049260 <connect@plt>:
 8049260:	ff 25 94 d0 04 08    	jmp    *0x804d094
 8049266:	68 10 01 00 00       	push   $0x110
 804926b:	e9 c0 fd ff ff       	jmp    8049030 <_init+0x30>

08049270 <close@plt>:
 8049270:	ff 25 98 d0 04 08    	jmp    *0x804d098
 8049276:	68 18 01 00 00       	push   $0x118
 804927b:	e9 b0 fd ff ff       	jmp    8049030 <_init+0x30>

08049280 <calloc@plt>:
 8049280:	ff 25 9c d0 04 08    	jmp    *0x804d09c
 8049286:	68 20 01 00 00       	push   $0x120
 804928b:	e9 a0 fd ff ff       	jmp    8049030 <_init+0x30>

Disassembly of section .text:

08049290 <_start>:
 8049290:	f3 0f 1e fb          	endbr32 
 8049294:	31 ed                	xor    %ebp,%ebp
 8049296:	5e                   	pop    %esi
 8049297:	89 e1                	mov    %esp,%ecx
 8049299:	83 e4 f0             	and    $0xfffffff0,%esp
 804929c:	50                   	push   %eax
 804929d:	54                   	push   %esp
 804929e:	52                   	push   %edx
 804929f:	e8 19 00 00 00       	call   80492bd <_start+0x2d>
 80492a4:	81 c3 5c 3d 00 00    	add    $0x3d5c,%ebx
 80492aa:	6a 00                	push   $0x0
 80492ac:	6a 00                	push   $0x0
 80492ae:	51                   	push   %ecx
 80492af:	56                   	push   %esi
 80492b0:	c7 c0 d0 99 04 08    	mov    $0x80499d0,%eax
 80492b6:	50                   	push   %eax
 80492b7:	e8 94 fd ff ff       	call   8049050 <__libc_start_main@plt>
 80492bc:	f4                   	hlt    
 80492bd:	8b 1c 24             	mov    (%esp),%ebx
 80492c0:	c3                   	ret    
 80492c1:	66 90                	xchg   %ax,%ax
 80492c3:	66 90                	xchg   %ax,%ax
 80492c5:	66 90                	xchg   %ax,%ax
 80492c7:	66 90                	xchg   %ax,%ax
 80492c9:	66 90                	xchg   %ax,%ax
 80492cb:	66 90                	xchg   %ax,%ax
 80492cd:	66 90                	xchg   %ax,%ax
 80492cf:	90                   	nop

080492d0 <_dl_relocate_static_pie>:
 80492d0:	f3 0f 1e fb          	endbr32 
 80492d4:	c3                   	ret    
 80492d5:	66 90                	xchg   %ax,%ax
 80492d7:	66 90                	xchg   %ax,%ax
 80492d9:	66 90                	xchg   %ax,%ax
 80492db:	66 90                	xchg   %ax,%ax
 80492dd:	66 90                	xchg   %ax,%ax
 80492df:	90                   	nop

080492e0 <__x86.get_pc_thunk.bx>:
 80492e0:	8b 1c 24             	mov    (%esp),%ebx
 80492e3:	c3                   	ret    
 80492e4:	66 90                	xchg   %ax,%ax
 80492e6:	66 90                	xchg   %ax,%ax
 80492e8:	66 90                	xchg   %ax,%ax
 80492ea:	66 90                	xchg   %ax,%ax
 80492ec:	66 90                	xchg   %ax,%ax
 80492ee:	66 90                	xchg   %ax,%ax

080492f0 <deregister_tm_clones>:
 80492f0:	b8 14 d1 04 08       	mov    $0x804d114,%eax
 80492f5:	3d 14 d1 04 08       	cmp    $0x804d114,%eax
 80492fa:	74 24                	je     8049320 <deregister_tm_clones+0x30>
 80492fc:	b8 00 00 00 00       	mov    $0x0,%eax
 8049301:	85 c0                	test   %eax,%eax
 8049303:	74 1b                	je     8049320 <deregister_tm_clones+0x30>
 8049305:	55                   	push   %ebp
 8049306:	89 e5                	mov    %esp,%ebp
 8049308:	83 ec 14             	sub    $0x14,%esp
 804930b:	68 14 d1 04 08       	push   $0x804d114
 8049310:	ff d0                	call   *%eax
 8049312:	83 c4 10             	add    $0x10,%esp
 8049315:	c9                   	leave  
 8049316:	c3                   	ret    
 8049317:	8d b4 26 00 00 00 00 	lea    0x0(%esi,%eiz,1),%esi
 804931e:	66 90                	xchg   %ax,%ax
 8049320:	c3                   	ret    
 8049321:	8d b4 26 00 00 00 00 	lea    0x0(%esi,%eiz,1),%esi
 8049328:	8d b4 26 00 00 00 00 	lea    0x0(%esi,%eiz,1),%esi
 804932f:	90                   	nop

08049330 <register_tm_clones>:
 8049330:	b8 14 d1 04 08       	mov    $0x804d114,%eax
 8049335:	2d 14 d1 04 08       	sub    $0x804d114,%eax
 804933a:	89 c2                	mov    %eax,%edx
 804933c:	c1 e8 1f             	shr    $0x1f,%eax
 804933f:	c1 fa 02             	sar    $0x2,%edx
 8049342:	01 d0                	add    %edx,%eax
 8049344:	d1 f8                	sar    %eax
 8049346:	74 20                	je     8049368 <register_tm_clones+0x38>
 8049348:	ba 00 00 00 00       	mov    $0x0,%edx
 804934d:	85 d2                	test   %edx,%edx
 804934f:	74 17                	je     8049368 <register_tm_clones+0x38>
 8049351:	55                   	push   %ebp
 8049352:	89 e5                	mov    %esp,%ebp
 8049354:	83 ec 10             	sub    $0x10,%esp
 8049357:	50                   	push   %eax
 8049358:	68 14 d1 04 08       	push   $0x804d114
 804935d:	ff d2                	call   *%edx
 804935f:	83 c4 10             	add    $0x10,%esp
 8049362:	c9                   	leave  
 8049363:	c3                   	ret    
 8049364:	8d 74 26 00          	lea    0x0(%esi,%eiz,1),%esi
 8049368:	c3                   	ret    
 8049369:	8d b4 26 00 00 00 00 	lea    0x0(%esi,%eiz,1),%esi

08049370 <__do_global_dtors_aux>:
 8049370:	f3 0f 1e fb          	endbr32 
 8049374:	80 3d 64 d1 04 08 00 	cmpb   $0x0,0x804d164
 804937b:	75 1b                	jne    8049398 <__do_global_dtors_aux+0x28>
 804937d:	55                   	push   %ebp
 804937e:	89 e5                	mov    %esp,%ebp
 8049380:	83 ec 08             	sub    $0x8,%esp
 8049383:	e8 68 ff ff ff       	call   80492f0 <deregister_tm_clones>
 8049388:	c6 05 64 d1 04 08 01 	movb   $0x1,0x804d164
 804938f:	c9                   	leave  
 8049390:	c3                   	ret    
 8049391:	8d b4 26 00 00 00 00 	lea    0x0(%esi,%eiz,1),%esi
 8049398:	c3                   	ret    
 8049399:	8d b4 26 00 00 00 00 	lea    0x0(%esi,%eiz,1),%esi

080493a0 <frame_dummy>:
 80493a0:	f3 0f 1e fb          	endbr32 
 80493a4:	eb 8a                	jmp    8049330 <register_tm_clones>

080493a6 <RAND_FUNC>:
 80493a6:	55                   	push   %ebp
 80493a7:	89 e5                	mov    %esp,%ebp
 80493a9:	83 ec 48             	sub    $0x48,%esp
 80493ac:	65 a1 14 00 00 00    	mov    %gs:0x14,%eax
 80493b2:	89 45 f4             	mov    %eax,-0xc(%ebp)
 80493b5:	31 c0                	xor    %eax,%eax
 80493b7:	c7 45 c5 41 20 74 65 	movl   $0x65742041,-0x3b(%ebp)
 80493be:	c7 45 c9 78 74 20 6c 	movl   $0x6c207478,-0x37(%ebp)
 80493c5:	c7 45 cd 69 6e 65 20 	movl   $0x20656e69,-0x33(%ebp)
 80493cc:	c7 45 d1 69 73 20 61 	movl   $0x61207369,-0x2f(%ebp)
 80493d3:	c7 45 d5 20 73 65 71 	movl   $0x71657320,-0x2b(%ebp)
 80493da:	c7 45 d9 75 65 6e 63 	movl   $0x636e6575,-0x27(%ebp)
 80493e1:	c7 45 dd 65 20 6f 66 	movl   $0x666f2065,-0x23(%ebp)
 80493e8:	c7 45 e1 20 41 53 43 	movl   $0x43534120,-0x1f(%ebp)
 80493ef:	c7 45 e5 49 49 20 63 	movl   $0x63204949,-0x1b(%ebp)
 80493f6:	c7 45 e9 68 61 72 61 	movl   $0x61726168,-0x17(%ebp)
 80493fd:	c7 45 ed 63 74 65 72 	movl   $0x72657463,-0x13(%ebp)
 8049404:	66 c7 45 f1 73 2e    	movw   $0x2e73,-0xf(%ebp)
 804940a:	c6 45 f3 00          	movb   $0x0,-0xd(%ebp)
 804940e:	0f b6 45 f4          	movzbl -0xc(%ebp),%eax
 8049412:	88 45 c5             	mov    %al,-0x3b(%ebp)
 8049415:	90                   	nop
 8049416:	8b 45 f4             	mov    -0xc(%ebp),%eax
 8049419:	65 2b 05 14 00 00 00 	sub    %gs:0x14,%eax
 8049420:	74 05                	je     8049427 <RAND_FUNC+0x81>
 8049422:	e8 b9 fc ff ff       	call   80490e0 <__stack_chk_fail@plt>
 8049427:	c9                   	leave  
 8049428:	c3                   	ret    

08049429 <smoke>:
 8049429:	55                   	push   %ebp
 804942a:	89 e5                	mov    %esp,%ebp
 804942c:	83 ec 08             	sub    $0x8,%esp
 804942f:	83 ec 0c             	sub    $0xc,%esp
 8049432:	68 08 b0 04 08       	push   $0x804b008
 8049437:	e8 04 fd ff ff       	call   8049140 <puts@plt>
 804943c:	83 c4 10             	add    $0x10,%esp
 804943f:	83 ec 0c             	sub    $0xc,%esp
 8049442:	6a 00                	push   $0x0
 8049444:	e8 ab 09 00 00       	call   8049df4 <validate>
 8049449:	83 c4 10             	add    $0x10,%esp
 804944c:	83 ec 0c             	sub    $0xc,%esp
 804944f:	6a 00                	push   $0x0
 8049451:	e8 fa fc ff ff       	call   8049150 <exit@plt>

08049456 <fizz>:
 8049456:	55                   	push   %ebp
 8049457:	89 e5                	mov    %esp,%ebp
 8049459:	83 ec 08             	sub    $0x8,%esp
 804945c:	8b 55 08             	mov    0x8(%ebp),%edx
 804945f:	a1 90 d1 04 08       	mov    0x804d190,%eax
 8049464:	39 c2                	cmp    %eax,%edx
 8049466:	75 22                	jne    804948a <fizz+0x34>
 8049468:	83 ec 08             	sub    $0x8,%esp
 804946b:	ff 75 08             	push   0x8(%ebp)
 804946e:	68 23 b0 04 08       	push   $0x804b023
 8049473:	e8 08 fc ff ff       	call   8049080 <printf@plt>
 8049478:	83 c4 10             	add    $0x10,%esp
 804947b:	83 ec 0c             	sub    $0xc,%esp
 804947e:	6a 01                	push   $0x1
 8049480:	e8 6f 09 00 00       	call   8049df4 <validate>
 8049485:	83 c4 10             	add    $0x10,%esp
 8049488:	eb 13                	jmp    804949d <fizz+0x47>
 804948a:	83 ec 08             	sub    $0x8,%esp
 804948d:	ff 75 08             	push   0x8(%ebp)
 8049490:	68 44 b0 04 08       	push   $0x804b044
 8049495:	e8 e6 fb ff ff       	call   8049080 <printf@plt>
 804949a:	83 c4 10             	add    $0x10,%esp
 804949d:	83 ec 0c             	sub    $0xc,%esp
 80494a0:	6a 00                	push   $0x0
 80494a2:	e8 a9 fc ff ff       	call   8049150 <exit@plt>

080494a7 <bang>:
 80494a7:	55                   	push   %ebp
 80494a8:	89 e5                	mov    %esp,%ebp
 80494aa:	83 ec 08             	sub    $0x8,%esp
 80494ad:	a1 98 d1 04 08       	mov    0x804d198,%eax
 80494b2:	89 c2                	mov    %eax,%edx
 80494b4:	a1 90 d1 04 08       	mov    0x804d190,%eax
 80494b9:	39 c2                	cmp    %eax,%edx
 80494bb:	75 25                	jne    80494e2 <bang+0x3b>
 80494bd:	a1 98 d1 04 08       	mov    0x804d198,%eax
 80494c2:	83 ec 08             	sub    $0x8,%esp
 80494c5:	50                   	push   %eax
 80494c6:	68 64 b0 04 08       	push   $0x804b064
 80494cb:	e8 b0 fb ff ff       	call   8049080 <printf@plt>
 80494d0:	83 c4 10             	add    $0x10,%esp
 80494d3:	83 ec 0c             	sub    $0xc,%esp
 80494d6:	6a 02                	push   $0x2
 80494d8:	e8 17 09 00 00       	call   8049df4 <validate>
 80494dd:	83 c4 10             	add    $0x10,%esp
 80494e0:	eb 16                	jmp    80494f8 <bang+0x51>
 80494e2:	a1 98 d1 04 08       	mov    0x804d198,%eax
 80494e7:	83 ec 08             	sub    $0x8,%esp
 80494ea:	50                   	push   %eax
 80494eb:	68 89 b0 04 08       	push   $0x804b089
 80494f0:	e8 8b fb ff ff       	call   8049080 <printf@plt>
 80494f5:	83 c4 10             	add    $0x10,%esp
 80494f8:	83 ec 0c             	sub    $0xc,%esp
 80494fb:	6a 00                	push   $0x0
 80494fd:	e8 4e fc ff ff       	call   8049150 <exit@plt>

08049502 <test>:
 8049502:	55                   	push   %ebp
 8049503:	89 e5                	mov    %esp,%ebp
 8049505:	83 ec 18             	sub    $0x18,%esp
 8049508:	e8 a5 04 00 00       	call   80499b2 <uniqueval>
 804950d:	89 45 f0             	mov    %eax,-0x10(%ebp)
 8049510:	e8 11 07 00 00       	call   8049c26 <getbuf>
 8049515:	89 45 f4             	mov    %eax,-0xc(%ebp)
 8049518:	e8 95 04 00 00       	call   80499b2 <uniqueval>
 804951d:	8b 55 f0             	mov    -0x10(%ebp),%edx
 8049520:	39 d0                	cmp    %edx,%eax
 8049522:	74 12                	je     8049536 <test+0x34>
 8049524:	83 ec 0c             	sub    $0xc,%esp
 8049527:	68 a8 b0 04 08       	push   $0x804b0a8
 804952c:	e8 0f fc ff ff       	call   8049140 <puts@plt>
 8049531:	83 c4 10             	add    $0x10,%esp
 8049534:	eb 41                	jmp    8049577 <test+0x75>
 8049536:	8b 55 f4             	mov    -0xc(%ebp),%edx
 8049539:	a1 90 d1 04 08       	mov    0x804d190,%eax
 804953e:	39 c2                	cmp    %eax,%edx
 8049540:	75 22                	jne    8049564 <test+0x62>
 8049542:	83 ec 08             	sub    $0x8,%esp
 8049545:	ff 75 f4             	push   -0xc(%ebp)
 8049548:	68 d1 b0 04 08       	push   $0x804b0d1
 804954d:	e8 2e fb ff ff       	call   8049080 <printf@plt>
 8049552:	83 c4 10             	add    $0x10,%esp
 8049555:	83 ec 0c             	sub    $0xc,%esp
 8049558:	6a 03                	push   $0x3
 804955a:	e8 95 08 00 00       	call   8049df4 <validate>
 804955f:	83 c4 10             	add    $0x10,%esp
 8049562:	eb 13                	jmp    8049577 <test+0x75>
 8049564:	83 ec 08             	sub    $0x8,%esp
 8049567:	ff 75 f4             	push   -0xc(%ebp)
 804956a:	68 ee b0 04 08       	push   $0x804b0ee
 804956f:	e8 0c fb ff ff       	call   8049080 <printf@plt>
 8049574:	83 c4 10             	add    $0x10,%esp
 8049577:	90                   	nop
 8049578:	c9                   	leave  
 8049579:	c3                   	ret    

0804957a <testn>:
 804957a:	55                   	push   %ebp
 804957b:	89 e5                	mov    %esp,%ebp
 804957d:	83 ec 18             	sub    $0x18,%esp
 8049580:	e8 2d 04 00 00       	call   80499b2 <uniqueval>
 8049585:	89 45 f0             	mov    %eax,-0x10(%ebp)
 8049588:	e8 b5 06 00 00       	call   8049c42 <getbufn>
 804958d:	89 45 f4             	mov    %eax,-0xc(%ebp)
 8049590:	e8 1d 04 00 00       	call   80499b2 <uniqueval>
 8049595:	8b 55 f0             	mov    -0x10(%ebp),%edx
 8049598:	39 d0                	cmp    %edx,%eax
 804959a:	74 12                	je     80495ae <testn+0x34>
 804959c:	83 ec 0c             	sub    $0xc,%esp
 804959f:	68 a8 b0 04 08       	push   $0x804b0a8
 80495a4:	e8 97 fb ff ff       	call   8049140 <puts@plt>
 80495a9:	83 c4 10             	add    $0x10,%esp
 80495ac:	eb 41                	jmp    80495ef <testn+0x75>
 80495ae:	8b 55 f4             	mov    -0xc(%ebp),%edx
 80495b1:	a1 90 d1 04 08       	mov    0x804d190,%eax
 80495b6:	39 c2                	cmp    %eax,%edx
 80495b8:	75 22                	jne    80495dc <testn+0x62>
 80495ba:	83 ec 08             	sub    $0x8,%esp
 80495bd:	ff 75 f4             	push   -0xc(%ebp)
 80495c0:	68 0c b1 04 08       	push   $0x804b10c
 80495c5:	e8 b6 fa ff ff       	call   8049080 <printf@plt>
 80495ca:	83 c4 10             	add    $0x10,%esp
 80495cd:	83 ec 0c             	sub    $0xc,%esp
 80495d0:	6a 04                	push   $0x4
 80495d2:	e8 1d 08 00 00       	call   8049df4 <validate>
 80495d7:	83 c4 10             	add    $0x10,%esp
 80495da:	eb 13                	jmp    80495ef <testn+0x75>
 80495dc:	83 ec 08             	sub    $0x8,%esp
 80495df:	ff 75 f4             	push   -0xc(%ebp)
 80495e2:	68 2c b1 04 08       	push   $0x804b12c
 80495e7:	e8 94 fa ff ff       	call   8049080 <printf@plt>
 80495ec:	83 c4 10             	add    $0x10,%esp
 80495ef:	90                   	nop
 80495f0:	c9                   	leave  
 80495f1:	c3                   	ret    

080495f2 <save_char>:
 80495f2:	55                   	push   %ebp
 80495f3:	89 e5                	mov    %esp,%ebp
 80495f5:	83 ec 04             	sub    $0x4,%esp
 80495f8:	8b 45 08             	mov    0x8(%ebp),%eax
 80495fb:	88 45 fc             	mov    %al,-0x4(%ebp)
 80495fe:	a1 9c d1 04 08       	mov    0x804d19c,%eax
 8049603:	3d ff 03 00 00       	cmp    $0x3ff,%eax
 8049608:	7f 70                	jg     804967a <save_char+0x88>
 804960a:	0f b6 45 fc          	movzbl -0x4(%ebp),%eax
 804960e:	c0 f8 04             	sar    $0x4,%al
 8049611:	0f be c0             	movsbl %al,%eax
 8049614:	83 e0 0f             	and    $0xf,%eax
 8049617:	89 c1                	mov    %eax,%ecx
 8049619:	8b 15 9c d1 04 08    	mov    0x804d19c,%edx
 804961f:	89 d0                	mov    %edx,%eax
 8049621:	01 c0                	add    %eax,%eax
 8049623:	01 c2                	add    %eax,%edx
 8049625:	0f b6 81 f0 d0 04 08 	movzbl 0x804d0f0(%ecx),%eax
 804962c:	88 82 a0 d1 04 08    	mov    %al,0x804d1a0(%edx)
 8049632:	0f be 45 fc          	movsbl -0x4(%ebp),%eax
 8049636:	83 e0 0f             	and    $0xf,%eax
 8049639:	89 c1                	mov    %eax,%ecx
 804963b:	8b 15 9c d1 04 08    	mov    0x804d19c,%edx
 8049641:	89 d0                	mov    %edx,%eax
 8049643:	01 c0                	add    %eax,%eax
 8049645:	01 d0                	add    %edx,%eax
 8049647:	8d 50 01             	lea    0x1(%eax),%edx
 804964a:	0f b6 81 f0 d0 04 08 	movzbl 0x804d0f0(%ecx),%eax
 8049651:	88 82 a0 d1 04 08    	mov    %al,0x804d1a0(%edx)
 8049657:	8b 15 9c d1 04 08    	mov    0x804d19c,%edx
 804965d:	89 d0                	mov    %edx,%eax
 804965f:	01 c0                	add    %eax,%eax
 8049661:	01 d0                	add    %edx,%eax
 8049663:	83 c0 02             	add    $0x2,%eax
 8049666:	c6 80 a0 d1 04 08 20 	movb   $0x20,0x804d1a0(%eax)
 804966d:	a1 9c d1 04 08       	mov    0x804d19c,%eax
 8049672:	83 c0 01             	add    $0x1,%eax
 8049675:	a3 9c d1 04 08       	mov    %eax,0x804d19c
 804967a:	90                   	nop
 804967b:	c9                   	leave  
 804967c:	c3                   	ret    

0804967d <save_term>:
 804967d:	55                   	push   %ebp
 804967e:	89 e5                	mov    %esp,%ebp
 8049680:	8b 15 9c d1 04 08    	mov    0x804d19c,%edx
 8049686:	89 d0                	mov    %edx,%eax
 8049688:	01 c0                	add    %eax,%eax
 804968a:	01 d0                	add    %edx,%eax
 804968c:	c6 80 a0 d1 04 08 00 	movb   $0x0,0x804d1a0(%eax)
 8049693:	90                   	nop
 8049694:	5d                   	pop    %ebp
 8049695:	c3                   	ret    

08049696 <Gets>:
 8049696:	55                   	push   %ebp
 8049697:	89 e5                	mov    %esp,%ebp
 8049699:	83 ec 18             	sub    $0x18,%esp
 804969c:	8b 45 08             	mov    0x8(%ebp),%eax
 804969f:	89 45 f0             	mov    %eax,-0x10(%ebp)
 80496a2:	c7 05 9c d1 04 08 00 	movl   $0x0,0x804d19c
 80496a9:	00 00 00 
 80496ac:	eb 1d                	jmp    80496cb <Gets+0x35>
 80496ae:	8b 45 f0             	mov    -0x10(%ebp),%eax
 80496b1:	8d 50 01             	lea    0x1(%eax),%edx
 80496b4:	89 55 f0             	mov    %edx,-0x10(%ebp)
 80496b7:	8b 55 f4             	mov    -0xc(%ebp),%edx
 80496ba:	88 10                	mov    %dl,(%eax)
 80496bc:	8b 45 f4             	mov    -0xc(%ebp),%eax
 80496bf:	0f be c0             	movsbl %al,%eax
 80496c2:	50                   	push   %eax
 80496c3:	e8 2a ff ff ff       	call   80495f2 <save_char>
 80496c8:	83 c4 04             	add    $0x4,%esp
 80496cb:	a1 8c d1 04 08       	mov    0x804d18c,%eax
 80496d0:	83 ec 0c             	sub    $0xc,%esp
 80496d3:	50                   	push   %eax
 80496d4:	e8 57 fb ff ff       	call   8049230 <getc@plt>
 80496d9:	83 c4 10             	add    $0x10,%esp
 80496dc:	89 45 f4             	mov    %eax,-0xc(%ebp)
 80496df:	83 7d f4 ff          	cmpl   $0xffffffff,-0xc(%ebp)
 80496e3:	74 06                	je     80496eb <Gets+0x55>
 80496e5:	83 7d f4 0a          	cmpl   $0xa,-0xc(%ebp)
 80496e9:	75 c3                	jne    80496ae <Gets+0x18>
 80496eb:	8b 45 f0             	mov    -0x10(%ebp),%eax
 80496ee:	8d 50 01             	lea    0x1(%eax),%edx
 80496f1:	89 55 f0             	mov    %edx,-0x10(%ebp)
 80496f4:	c6 00 00             	movb   $0x0,(%eax)
 80496f7:	e8 81 ff ff ff       	call   804967d <save_term>
 80496fc:	8b 45 08             	mov    0x8(%ebp),%eax
 80496ff:	c9                   	leave  
 8049700:	c3                   	ret    

08049701 <usage>:
 8049701:	55                   	push   %ebp
 8049702:	89 e5                	mov    %esp,%ebp
 8049704:	83 ec 08             	sub    $0x8,%esp
 8049707:	83 ec 08             	sub    $0x8,%esp
 804970a:	ff 75 08             	push   0x8(%ebp)
 804970d:	68 48 b1 04 08       	push   $0x804b148
 8049712:	e8 69 f9 ff ff       	call   8049080 <printf@plt>
 8049717:	83 c4 10             	add    $0x10,%esp
 804971a:	83 ec 0c             	sub    $0xc,%esp
 804971d:	68 66 b1 04 08       	push   $0x804b166
 8049722:	e8 19 fa ff ff       	call   8049140 <puts@plt>
 8049727:	83 c4 10             	add    $0x10,%esp
 804972a:	83 ec 0c             	sub    $0xc,%esp
 804972d:	68 7c b1 04 08       	push   $0x804b17c
 8049732:	e8 09 fa ff ff       	call   8049140 <puts@plt>
 8049737:	83 c4 10             	add    $0x10,%esp
 804973a:	83 ec 0c             	sub    $0xc,%esp
 804973d:	68 98 b1 04 08       	push   $0x804b198
 8049742:	e8 f9 f9 ff ff       	call   8049140 <puts@plt>
 8049747:	83 c4 10             	add    $0x10,%esp
 804974a:	83 ec 0c             	sub    $0xc,%esp
 804974d:	68 d4 b1 04 08       	push   $0x804b1d4
 8049752:	e8 e9 f9 ff ff       	call   8049140 <puts@plt>
 8049757:	83 c4 10             	add    $0x10,%esp
 804975a:	83 ec 0c             	sub    $0xc,%esp
 804975d:	6a 00                	push   $0x0
 804975f:	e8 ec f9 ff ff       	call   8049150 <exit@plt>

08049764 <bushandler>:
 8049764:	55                   	push   %ebp
 8049765:	89 e5                	mov    %esp,%ebp
 8049767:	83 ec 08             	sub    $0x8,%esp
 804976a:	83 ec 0c             	sub    $0xc,%esp
 804976d:	68 fc b1 04 08       	push   $0x804b1fc
 8049772:	e8 c9 f9 ff ff       	call   8049140 <puts@plt>
 8049777:	83 c4 10             	add    $0x10,%esp
 804977a:	83 ec 0c             	sub    $0xc,%esp
 804977d:	68 1c b2 04 08       	push   $0x804b21c
 8049782:	e8 b9 f9 ff ff       	call   8049140 <puts@plt>
 8049787:	83 c4 10             	add    $0x10,%esp
 804978a:	83 ec 0c             	sub    $0xc,%esp
 804978d:	6a 00                	push   $0x0
 804978f:	e8 bc f9 ff ff       	call   8049150 <exit@plt>

08049794 <seghandler>:
 8049794:	55                   	push   %ebp
 8049795:	89 e5                	mov    %esp,%ebp
 8049797:	83 ec 08             	sub    $0x8,%esp
 804979a:	83 ec 0c             	sub    $0xc,%esp
 804979d:	68 34 b2 04 08       	push   $0x804b234
 80497a2:	e8 99 f9 ff ff       	call   8049140 <puts@plt>
 80497a7:	83 c4 10             	add    $0x10,%esp
 80497aa:	83 ec 0c             	sub    $0xc,%esp
 80497ad:	68 1c b2 04 08       	push   $0x804b21c
 80497b2:	e8 89 f9 ff ff       	call   8049140 <puts@plt>
 80497b7:	83 c4 10             	add    $0x10,%esp
 80497ba:	83 ec 0c             	sub    $0xc,%esp
 80497bd:	6a 00                	push   $0x0
 80497bf:	e8 8c f9 ff ff       	call   8049150 <exit@plt>

080497c4 <illegalhandler>:
 80497c4:	55                   	push   %ebp
 80497c5:	89 e5                	mov    %esp,%ebp
 80497c7:	83 ec 08             	sub    $0x8,%esp
 80497ca:	83 ec 0c             	sub    $0xc,%esp
 80497cd:	68 5c b2 04 08       	push   $0x804b25c
 80497d2:	e8 69 f9 ff ff       	call   8049140 <puts@plt>
 80497d7:	83 c4 10             	add    $0x10,%esp
 80497da:	83 ec 0c             	sub    $0xc,%esp
 80497dd:	68 1c b2 04 08       	push   $0x804b21c
 80497e2:	e8 59 f9 ff ff       	call   8049140 <puts@plt>
 80497e7:	83 c4 10             	add    $0x10,%esp
 80497ea:	83 ec 0c             	sub    $0xc,%esp
 80497ed:	6a 00                	push   $0x0
 80497ef:	e8 5c f9 ff ff       	call   8049150 <exit@plt>

080497f4 <launch>:
 80497f4:	55                   	push   %ebp
 80497f5:	89 e5                	mov    %esp,%ebp
 80497f7:	83 ec 58             	sub    $0x58,%esp
 80497fa:	65 a1 14 00 00 00    	mov    %gs:0x14,%eax
 8049800:	89 45 f4             	mov    %eax,-0xc(%ebp)
 8049803:	31 c0                	xor    %eax,%eax
 8049805:	c7 45 ac 00 00 00 00 	movl   $0x0,-0x54(%ebp)
 804980c:	8d 45 b4             	lea    -0x4c(%ebp),%eax
 804980f:	25 f0 3f 00 00       	and    $0x3ff0,%eax
 8049814:	89 45 ac             	mov    %eax,-0x54(%ebp)
 8049817:	8b 55 0c             	mov    0xc(%ebp),%edx
 804981a:	8b 45 ac             	mov    -0x54(%ebp),%eax
 804981d:	01 d0                	add    %edx,%eax
 804981f:	8d 50 0c             	lea    0xc(%eax),%edx
 8049822:	b8 10 00 00 00       	mov    $0x10,%eax
 8049827:	83 e8 01             	sub    $0x1,%eax
 804982a:	01 d0                	add    %edx,%eax
 804982c:	b9 10 00 00 00       	mov    $0x10,%ecx
 8049831:	ba 00 00 00 00       	mov    $0x0,%edx
 8049836:	f7 f1                	div    %ecx
 8049838:	6b c0 10             	imul   $0x10,%eax,%eax
 804983b:	89 c1                	mov    %eax,%ecx
 804983d:	81 e1 00 f0 ff ff    	and    $0xfffff000,%ecx
 8049843:	89 e2                	mov    %esp,%edx
 8049845:	29 ca                	sub    %ecx,%edx
 8049847:	39 d4                	cmp    %edx,%esp
 8049849:	74 10                	je     804985b <launch+0x67>
 804984b:	81 ec 00 10 00 00    	sub    $0x1000,%esp
 8049851:	83 8c 24 fc 0f 00 00 	orl    $0x0,0xffc(%esp)
 8049858:	00 
 8049859:	eb ec                	jmp    8049847 <launch+0x53>
 804985b:	89 c2                	mov    %eax,%edx
 804985d:	81 e2 ff 0f 00 00    	and    $0xfff,%edx
 8049863:	29 d4                	sub    %edx,%esp
 8049865:	89 c2                	mov    %eax,%edx
 8049867:	81 e2 ff 0f 00 00    	and    $0xfff,%edx
 804986d:	85 d2                	test   %edx,%edx
 804986f:	74 0d                	je     804987e <launch+0x8a>
 8049871:	25 ff 0f 00 00       	and    $0xfff,%eax
 8049876:	83 e8 04             	sub    $0x4,%eax
 8049879:	01 e0                	add    %esp,%eax
 804987b:	83 08 00             	orl    $0x0,(%eax)
 804987e:	89 e0                	mov    %esp,%eax
 8049880:	83 c0 0f             	add    $0xf,%eax
 8049883:	c1 e8 04             	shr    $0x4,%eax
 8049886:	c1 e0 04             	shl    $0x4,%eax
 8049889:	89 45 b0             	mov    %eax,-0x50(%ebp)
 804988c:	83 ec 04             	sub    $0x4,%esp
 804988f:	ff 75 ac             	push   -0x54(%ebp)
 8049892:	68 f4 00 00 00       	push   $0xf4
 8049897:	ff 75 b0             	push   -0x50(%ebp)
 804989a:	e8 31 f9 ff ff       	call   80491d0 <memset@plt>
 804989f:	83 c4 10             	add    $0x10,%esp
 80498a2:	83 ec 0c             	sub    $0xc,%esp
 80498a5:	68 87 b2 04 08       	push   $0x804b287
 80498aa:	e8 d1 f7 ff ff       	call   8049080 <printf@plt>
 80498af:	83 c4 10             	add    $0x10,%esp
 80498b2:	83 7d 08 00          	cmpl   $0x0,0x8(%ebp)
 80498b6:	74 07                	je     80498bf <launch+0xcb>
 80498b8:	e8 bd fc ff ff       	call   804957a <testn>
 80498bd:	eb 05                	jmp    80498c4 <launch+0xd0>
 80498bf:	e8 3e fc ff ff       	call   8049502 <test>
 80498c4:	a1 94 d1 04 08       	mov    0x804d194,%eax
 80498c9:	85 c0                	test   %eax,%eax
 80498cb:	75 1a                	jne    80498e7 <launch+0xf3>
 80498cd:	83 ec 0c             	sub    $0xc,%esp
 80498d0:	68 1c b2 04 08       	push   $0x804b21c
 80498d5:	e8 66 f8 ff ff       	call   8049140 <puts@plt>
 80498da:	83 c4 10             	add    $0x10,%esp
 80498dd:	c7 05 94 d1 04 08 00 	movl   $0x0,0x804d194
 80498e4:	00 00 00 
 80498e7:	90                   	nop
 80498e8:	8b 45 f4             	mov    -0xc(%ebp),%eax
 80498eb:	65 2b 05 14 00 00 00 	sub    %gs:0x14,%eax
 80498f2:	74 05                	je     80498f9 <launch+0x105>
 80498f4:	e8 e7 f7 ff ff       	call   80490e0 <__stack_chk_fail@plt>
 80498f9:	c9                   	leave  
 80498fa:	c3                   	ret    

080498fb <launcher>:
 80498fb:	55                   	push   %ebp
 80498fc:	89 e5                	mov    %esp,%ebp
 80498fe:	83 ec 18             	sub    $0x18,%esp
 8049901:	8b 45 08             	mov    0x8(%ebp),%eax
 8049904:	a3 a4 dd 04 08       	mov    %eax,0x804dda4
 8049909:	8b 45 0c             	mov    0xc(%ebp),%eax
 804990c:	a3 a8 dd 04 08       	mov    %eax,0x804dda8
 8049911:	83 ec 08             	sub    $0x8,%esp
 8049914:	6a 00                	push   $0x0
 8049916:	6a 00                	push   $0x0
 8049918:	68 32 01 00 00       	push   $0x132
 804991d:	6a 07                	push   $0x7
 804991f:	68 00 00 10 00       	push   $0x100000
 8049924:	68 00 90 58 55       	push   $0x55589000
 8049929:	e8 42 f8 ff ff       	call   8049170 <mmap@plt>
 804992e:	83 c4 20             	add    $0x20,%esp
 8049931:	89 45 f4             	mov    %eax,-0xc(%ebp)
 8049934:	81 7d f4 00 90 58 55 	cmpl   $0x55589000,-0xc(%ebp)
 804993b:	74 21                	je     804995e <launcher+0x63>
 804993d:	a1 20 d1 04 08       	mov    0x804d120,%eax
 8049942:	50                   	push   %eax
 8049943:	6a 47                	push   $0x47
 8049945:	6a 01                	push   $0x1
 8049947:	68 94 b2 04 08       	push   $0x804b294
 804994c:	e8 af f7 ff ff       	call   8049100 <fwrite@plt>
 8049951:	83 c4 10             	add    $0x10,%esp
 8049954:	83 ec 0c             	sub    $0xc,%esp
 8049957:	6a 01                	push   $0x1
 8049959:	e8 f2 f7 ff ff       	call   8049150 <exit@plt>
 804995e:	8b 45 f4             	mov    -0xc(%ebp),%eax
 8049961:	05 f8 ff 0f 00       	add    $0xffff8,%eax
 8049966:	a3 ac dd 04 08       	mov    %eax,0x804ddac
 804996b:	8b 15 ac dd 04 08    	mov    0x804ddac,%edx
 8049971:	89 e0                	mov    %esp,%eax
 8049973:	89 d4                	mov    %edx,%esp
 8049975:	89 c2                	mov    %eax,%edx
 8049977:	89 15 b0 dd 04 08    	mov    %edx,0x804ddb0
 804997d:	8b 15 a8 dd 04 08    	mov    0x804dda8,%edx
 8049983:	a1 a4 dd 04 08       	mov    0x804dda4,%eax
 8049988:	83 ec 08             	sub    $0x8,%esp
 804998b:	52                   	push   %edx
 804998c:	50                   	push   %eax
 804998d:	e8 62 fe ff ff       	call   80497f4 <launch>
 8049992:	83 c4 10             	add    $0x10,%esp
 8049995:	a1 b0 dd 04 08       	mov    0x804ddb0,%eax
 804999a:	89 c4                	mov    %eax,%esp
 804999c:	83 ec 08             	sub    $0x8,%esp
 804999f:	68 00 00 10 00       	push   $0x100000
 80499a4:	ff 75 f4             	push   -0xc(%ebp)
 80499a7:	e8 54 f8 ff ff       	call   8049200 <munmap@plt>
 80499ac:	83 c4 10             	add    $0x10,%esp
 80499af:	90                   	nop
 80499b0:	c9                   	leave  
 80499b1:	c3                   	ret    

080499b2 <uniqueval>:
 80499b2:	55                   	push   %ebp
 80499b3:	89 e5                	mov    %esp,%ebp
 80499b5:	83 ec 08             	sub    $0x8,%esp
 80499b8:	e8 63 f7 ff ff       	call   8049120 <getpid@plt>
 80499bd:	83 ec 0c             	sub    $0xc,%esp
 80499c0:	50                   	push   %eax
 80499c1:	e8 aa f6 ff ff       	call   8049070 <srandom@plt>
 80499c6:	83 c4 10             	add    $0x10,%esp
 80499c9:	e8 72 f8 ff ff       	call   8049240 <random@plt>
 80499ce:	c9                   	leave  
 80499cf:	c3                   	ret    

080499d0 <main>:
 80499d0:	8d 4c 24 04          	lea    0x4(%esp),%ecx
 80499d4:	83 e4 f0             	and    $0xfffffff0,%esp
 80499d7:	ff 71 fc             	push   -0x4(%ecx)
 80499da:	55                   	push   %ebp
 80499db:	89 e5                	mov    %esp,%ebp
 80499dd:	53                   	push   %ebx
 80499de:	51                   	push   %ecx
 80499df:	83 ec 20             	sub    $0x20,%esp
 80499e2:	89 cb                	mov    %ecx,%ebx
 80499e4:	c7 45 f0 00 00 00 00 	movl   $0x0,-0x10(%ebp)
 80499eb:	c7 45 e4 00 00 00 00 	movl   $0x0,-0x1c(%ebp)
 80499f2:	c7 45 ec 01 00 00 00 	movl   $0x1,-0x14(%ebp)
 80499f9:	83 ec 08             	sub    $0x8,%esp
 80499fc:	68 94 97 04 08       	push   $0x8049794
 8049a01:	6a 0b                	push   $0xb
 8049a03:	e8 b8 f6 ff ff       	call   80490c0 <signal@plt>
 8049a08:	83 c4 10             	add    $0x10,%esp
 8049a0b:	83 ec 08             	sub    $0x8,%esp
 8049a0e:	68 64 97 04 08       	push   $0x8049764
 8049a13:	6a 07                	push   $0x7
 8049a15:	e8 a6 f6 ff ff       	call   80490c0 <signal@plt>
 8049a1a:	83 c4 10             	add    $0x10,%esp
 8049a1d:	83 ec 08             	sub    $0x8,%esp
 8049a20:	68 c4 97 04 08       	push   $0x80497c4
 8049a25:	6a 04                	push   $0x4
 8049a27:	e8 94 f6 ff ff       	call   80490c0 <signal@plt>
 8049a2c:	83 c4 10             	add    $0x10,%esp
 8049a2f:	a1 40 d1 04 08       	mov    0x804d140,%eax
 8049a34:	a3 8c d1 04 08       	mov    %eax,0x804d18c
 8049a39:	e9 a3 00 00 00       	jmp    8049ae1 <main+0x111>
 8049a3e:	0f be 45 e3          	movsbl -0x1d(%ebp),%eax
 8049a42:	83 e8 67             	sub    $0x67,%eax
 8049a45:	83 f8 0e             	cmp    $0xe,%eax
 8049a48:	0f 87 82 00 00 00    	ja     8049ad0 <main+0x100>
 8049a4e:	8b 04 85 54 b3 04 08 	mov    0x804b354(,%eax,4),%eax
 8049a55:	ff e0                	jmp    *%eax
 8049a57:	8b 43 04             	mov    0x4(%ebx),%eax
 8049a5a:	8b 00                	mov    (%eax),%eax
 8049a5c:	83 ec 0c             	sub    $0xc,%esp
 8049a5f:	50                   	push   %eax
 8049a60:	e8 9c fc ff ff       	call   8049701 <usage>
 8049a65:	83 c4 10             	add    $0x10,%esp
 8049a68:	eb 77                	jmp    8049ae1 <main+0x111>
 8049a6a:	c7 45 e4 01 00 00 00 	movl   $0x1,-0x1c(%ebp)
 8049a71:	c7 45 ec 05 00 00 00 	movl   $0x5,-0x14(%ebp)
 8049a78:	eb 67                	jmp    8049ae1 <main+0x111>
 8049a7a:	a1 60 d1 04 08       	mov    0x804d160,%eax
 8049a7f:	83 ec 0c             	sub    $0xc,%esp
 8049a82:	50                   	push   %eax
 8049a83:	e8 18 f6 ff ff       	call   80490a0 <strdup@plt>
 8049a88:	83 c4 10             	add    $0x10,%esp
 8049a8b:	a3 80 d1 04 08       	mov    %eax,0x804d180
 8049a90:	a1 80 d1 04 08       	mov    0x804d180,%eax
 8049a95:	83 ec 0c             	sub    $0xc,%esp
 8049a98:	50                   	push   %eax
 8049a99:	e8 cd 12 00 00       	call   804ad6b <gencookie>
 8049a9e:	83 c4 10             	add    $0x10,%esp
 8049aa1:	a3 90 d1 04 08       	mov    %eax,0x804d190
 8049aa6:	eb 39                	jmp    8049ae1 <main+0x111>
 8049aa8:	83 ec 0c             	sub    $0xc,%esp
 8049aab:	68 dc b2 04 08       	push   $0x804b2dc
 8049ab0:	e8 8b f6 ff ff       	call   8049140 <puts@plt>
 8049ab5:	83 c4 10             	add    $0x10,%esp
 8049ab8:	c7 05 84 d1 04 08 00 	movl   $0x0,0x804d184
 8049abf:	00 00 00 
 8049ac2:	eb 1d                	jmp    8049ae1 <main+0x111>
 8049ac4:	c7 05 88 d1 04 08 01 	movl   $0x1,0x804d188
 8049acb:	00 00 00 
 8049ace:	eb 11                	jmp    8049ae1 <main+0x111>
 8049ad0:	8b 43 04             	mov    0x4(%ebx),%eax
 8049ad3:	8b 00                	mov    (%eax),%eax
 8049ad5:	83 ec 0c             	sub    $0xc,%esp
 8049ad8:	50                   	push   %eax
 8049ad9:	e8 23 fc ff ff       	call   8049701 <usage>
 8049ade:	83 c4 10             	add    $0x10,%esp
 8049ae1:	83 ec 04             	sub    $0x4,%esp
 8049ae4:	68 04 b3 04 08       	push   $0x804b304
 8049ae9:	ff 73 04             	push   0x4(%ebx)
 8049aec:	ff 33                	push   (%ebx)
 8049aee:	e8 ad f6 ff ff       	call   80491a0 <getopt@plt>
 8049af3:	83 c4 10             	add    $0x10,%esp
 8049af6:	88 45 e3             	mov    %al,-0x1d(%ebp)
 8049af9:	80 7d e3 ff          	cmpb   $0xff,-0x1d(%ebp)
 8049afd:	0f 85 3b ff ff ff    	jne    8049a3e <main+0x6e>
 8049b03:	a1 80 d1 04 08       	mov    0x804d180,%eax
 8049b08:	85 c0                	test   %eax,%eax
 8049b0a:	75 27                	jne    8049b33 <main+0x163>
 8049b0c:	8b 43 04             	mov    0x4(%ebx),%eax
 8049b0f:	8b 00                	mov    (%eax),%eax
 8049b11:	83 ec 08             	sub    $0x8,%esp
 8049b14:	50                   	push   %eax
 8049b15:	68 0c b3 04 08       	push   $0x804b30c
 8049b1a:	e8 61 f5 ff ff       	call   8049080 <printf@plt>
 8049b1f:	83 c4 10             	add    $0x10,%esp
 8049b22:	8b 43 04             	mov    0x4(%ebx),%eax
 8049b25:	8b 00                	mov    (%eax),%eax
 8049b27:	83 ec 0c             	sub    $0xc,%esp
 8049b2a:	50                   	push   %eax
 8049b2b:	e8 d1 fb ff ff       	call   8049701 <usage>
 8049b30:	83 c4 10             	add    $0x10,%esp
 8049b33:	e8 2c 01 00 00       	call   8049c64 <initialize_bomb>
 8049b38:	a1 80 d1 04 08       	mov    0x804d180,%eax
 8049b3d:	83 ec 08             	sub    $0x8,%esp
 8049b40:	50                   	push   %eax
 8049b41:	68 38 b3 04 08       	push   $0x804b338
 8049b46:	e8 35 f5 ff ff       	call   8049080 <printf@plt>
 8049b4b:	83 c4 10             	add    $0x10,%esp
 8049b4e:	a1 90 d1 04 08       	mov    0x804d190,%eax
 8049b53:	83 ec 08             	sub    $0x8,%esp
 8049b56:	50                   	push   %eax
 8049b57:	68 44 b3 04 08       	push   $0x804b344
 8049b5c:	e8 1f f5 ff ff       	call   8049080 <printf@plt>
 8049b61:	83 c4 10             	add    $0x10,%esp
 8049b64:	a1 90 d1 04 08       	mov    0x804d190,%eax
 8049b69:	83 ec 0c             	sub    $0xc,%esp
 8049b6c:	50                   	push   %eax
 8049b6d:	e8 fe f4 ff ff       	call   8049070 <srandom@plt>
 8049b72:	83 c4 10             	add    $0x10,%esp
 8049b75:	e8 c6 f6 ff ff       	call   8049240 <random@plt>
 8049b7a:	25 f0 0f 00 00       	and    $0xff0,%eax
 8049b7f:	05 00 01 00 00       	add    $0x100,%eax
 8049b84:	89 45 f0             	mov    %eax,-0x10(%ebp)
 8049b87:	8b 45 ec             	mov    -0x14(%ebp),%eax
 8049b8a:	83 ec 08             	sub    $0x8,%esp
 8049b8d:	6a 04                	push   $0x4
 8049b8f:	50                   	push   %eax
 8049b90:	e8 eb f6 ff ff       	call   8049280 <calloc@plt>
 8049b95:	83 c4 10             	add    $0x10,%esp
 8049b98:	89 45 f4             	mov    %eax,-0xc(%ebp)
 8049b9b:	8b 45 f4             	mov    -0xc(%ebp),%eax
 8049b9e:	c7 00 00 00 00 00    	movl   $0x0,(%eax)
 8049ba4:	c7 45 e8 01 00 00 00 	movl   $0x1,-0x18(%ebp)
 8049bab:	eb 28                	jmp    8049bd5 <main+0x205>
 8049bad:	e8 8e f6 ff ff       	call   8049240 <random@plt>
 8049bb2:	25 f0 00 00 00       	and    $0xf0,%eax
 8049bb7:	89 c1                	mov    %eax,%ecx
 8049bb9:	8b 45 e8             	mov    -0x18(%ebp),%eax
 8049bbc:	8d 14 85 00 00 00 00 	lea    0x0(,%eax,4),%edx
 8049bc3:	8b 45 f4             	mov    -0xc(%ebp),%eax
 8049bc6:	01 d0                	add    %edx,%eax
 8049bc8:	ba 80 00 00 00       	mov    $0x80,%edx
 8049bcd:	29 ca                	sub    %ecx,%edx
 8049bcf:	89 10                	mov    %edx,(%eax)
 8049bd1:	83 45 e8 01          	addl   $0x1,-0x18(%ebp)
 8049bd5:	8b 45 e8             	mov    -0x18(%ebp),%eax
 8049bd8:	3b 45 ec             	cmp    -0x14(%ebp),%eax
 8049bdb:	7c d0                	jl     8049bad <main+0x1dd>
 8049bdd:	c7 45 e8 00 00 00 00 	movl   $0x0,-0x18(%ebp)
 8049be4:	eb 29                	jmp    8049c0f <main+0x23f>
 8049be6:	8b 45 e8             	mov    -0x18(%ebp),%eax
 8049be9:	8d 14 85 00 00 00 00 	lea    0x0(,%eax,4),%edx
 8049bf0:	8b 45 f4             	mov    -0xc(%ebp),%eax
 8049bf3:	01 d0                	add    %edx,%eax
 8049bf5:	8b 10                	mov    (%eax),%edx
 8049bf7:	8b 45 f0             	mov    -0x10(%ebp),%eax
 8049bfa:	01 d0                	add    %edx,%eax
 8049bfc:	83 ec 08             	sub    $0x8,%esp
 8049bff:	50                   	push   %eax
 8049c00:	ff 75 e4             	push   -0x1c(%ebp)
 8049c03:	e8 f3 fc ff ff       	call   80498fb <launcher>
 8049c08:	83 c4 10             	add    $0x10,%esp
 8049c0b:	83 45 e8 01          	addl   $0x1,-0x18(%ebp)
 8049c0f:	8b 45 e8             	mov    -0x18(%ebp),%eax
 8049c12:	3b 45 ec             	cmp    -0x14(%ebp),%eax
 8049c15:	7c cf                	jl     8049be6 <main+0x216>
 8049c17:	b8 00 00 00 00       	mov    $0x0,%eax
 8049c1c:	8d 65 f8             	lea    -0x8(%ebp),%esp
 8049c1f:	59                   	pop    %ecx
 8049c20:	5b                   	pop    %ebx
 8049c21:	5d                   	pop    %ebp
 8049c22:	8d 61 fc             	lea    -0x4(%ecx),%esp
 8049c25:	c3                   	ret    

08049c26 <getbuf>:
 8049c26:	55                   	push   %ebp
 8049c27:	89 e5                	mov    %esp,%ebp
 8049c29:	83 ec 48             	sub    $0x48,%esp
 8049c2c:	83 ec 0c             	sub    $0xc,%esp
 8049c2f:	8d 45 c4             	lea    -0x3c(%ebp),%eax
 8049c32:	50                   	push   %eax
 8049c33:	e8 5e fa ff ff       	call   8049696 <Gets>
 8049c38:	83 c4 10             	add    $0x10,%esp
 8049c3b:	b8 01 00 00 00       	mov    $0x1,%eax
 8049c40:	c9                   	leave  
 8049c41:	c3                   	ret    

08049c42 <getbufn>:
 8049c42:	55                   	push   %ebp
 8049c43:	89 e5                	mov    %esp,%ebp
 8049c45:	81 ec 68 02 00 00    	sub    $0x268,%esp
 8049c4b:	83 ec 0c             	sub    $0xc,%esp
 8049c4e:	8d 85 98 fd ff ff    	lea    -0x268(%ebp),%eax
 8049c54:	50                   	push   %eax
 8049c55:	e8 3c fa ff ff       	call   8049696 <Gets>
 8049c5a:	83 c4 10             	add    $0x10,%esp
 8049c5d:	b8 01 00 00 00       	mov    $0x1,%eax
 8049c62:	c9                   	leave  
 8049c63:	c3                   	ret    

08049c64 <initialize_bomb>:
 8049c64:	55                   	push   %ebp
 8049c65:	89 e5                	mov    %esp,%ebp
 8049c67:	81 ec 00 10 00 00    	sub    $0x1000,%esp
 8049c6d:	83 0c 24 00          	orl    $0x0,(%esp)
 8049c71:	81 ec 00 10 00 00    	sub    $0x1000,%esp
 8049c77:	83 0c 24 00          	orl    $0x0,(%esp)
 8049c7b:	81 ec 18 04 00 00    	sub    $0x418,%esp
 8049c81:	65 a1 14 00 00 00    	mov    %gs:0x14,%eax
 8049c87:	89 45 f4             	mov    %eax,-0xc(%ebp)
 8049c8a:	31 c0                	xor    %eax,%eax
 8049c8c:	c7 85 f0 db ff ff 00 	movl   $0x0,-0x2410(%ebp)
 8049c93:	00 00 00 
 8049c96:	a1 88 d1 04 08       	mov    0x804d188,%eax
 8049c9b:	85 c0                	test   %eax,%eax
 8049c9d:	74 0d                	je     8049cac <initialize_bomb+0x48>
 8049c9f:	83 ec 0c             	sub    $0xc,%esp
 8049ca2:	6a ff                	push   $0xffffffff
 8049ca4:	e8 a2 0d 00 00       	call   804aa4b <init_timeout>
 8049ca9:	83 c4 10             	add    $0x10,%esp
 8049cac:	a1 84 d1 04 08       	mov    0x804d184,%eax
 8049cb1:	85 c0                	test   %eax,%eax
 8049cb3:	0f 84 27 01 00 00    	je     8049de0 <initialize_bomb+0x17c>
 8049cb9:	83 ec 08             	sub    $0x8,%esp
 8049cbc:	68 00 04 00 00       	push   $0x400
 8049cc1:	8d 85 f4 db ff ff    	lea    -0x240c(%ebp),%eax
 8049cc7:	50                   	push   %eax
 8049cc8:	e8 63 f4 ff ff       	call   8049130 <gethostname@plt>
 8049ccd:	83 c4 10             	add    $0x10,%esp
 8049cd0:	85 c0                	test   %eax,%eax
 8049cd2:	74 1a                	je     8049cee <initialize_bomb+0x8a>
 8049cd4:	83 ec 0c             	sub    $0xc,%esp
 8049cd7:	68 90 b3 04 08       	push   $0x804b390
 8049cdc:	e8 5f f4 ff ff       	call   8049140 <puts@plt>
 8049ce1:	83 c4 10             	add    $0x10,%esp
 8049ce4:	83 ec 0c             	sub    $0xc,%esp
 8049ce7:	6a 08                	push   $0x8
 8049ce9:	e8 62 f4 ff ff       	call   8049150 <exit@plt>
 8049cee:	c7 85 ec db ff ff 00 	movl   $0x0,-0x2414(%ebp)
 8049cf5:	00 00 00 
 8049cf8:	eb 37                	jmp    8049d31 <initialize_bomb+0xcd>
 8049cfa:	8b 85 ec db ff ff    	mov    -0x2414(%ebp),%eax
 8049d00:	8b 04 85 c0 dd 04 08 	mov    0x804ddc0(,%eax,4),%eax
 8049d07:	83 ec 08             	sub    $0x8,%esp
 8049d0a:	8d 95 f4 db ff ff    	lea    -0x240c(%ebp),%edx
 8049d10:	52                   	push   %edx
 8049d11:	50                   	push   %eax
 8049d12:	e8 99 f4 ff ff       	call   80491b0 <strcasecmp@plt>
 8049d17:	83 c4 10             	add    $0x10,%esp
 8049d1a:	85 c0                	test   %eax,%eax
 8049d1c:	75 0c                	jne    8049d2a <initialize_bomb+0xc6>
 8049d1e:	c7 85 f0 db ff ff 01 	movl   $0x1,-0x2410(%ebp)
 8049d25:	00 00 00 
 8049d28:	eb 18                	jmp    8049d42 <initialize_bomb+0xde>
 8049d2a:	83 85 ec db ff ff 01 	addl   $0x1,-0x2414(%ebp)
 8049d31:	8b 85 ec db ff ff    	mov    -0x2414(%ebp),%eax
 8049d37:	8b 04 85 c0 dd 04 08 	mov    0x804ddc0(,%eax,4),%eax
 8049d3e:	85 c0                	test   %eax,%eax
 8049d40:	75 b8                	jne    8049cfa <initialize_bomb+0x96>
 8049d42:	83 bd f0 db ff ff 00 	cmpl   $0x0,-0x2410(%ebp)
 8049d49:	75 5e                	jne    8049da9 <initialize_bomb+0x145>
 8049d4b:	83 ec 08             	sub    $0x8,%esp
 8049d4e:	8d 85 f4 db ff ff    	lea    -0x240c(%ebp),%eax
 8049d54:	50                   	push   %eax
 8049d55:	68 c8 b3 04 08       	push   $0x804b3c8
 8049d5a:	e8 21 f3 ff ff       	call   8049080 <printf@plt>
 8049d5f:	83 c4 10             	add    $0x10,%esp
 8049d62:	c7 85 ec db ff ff 00 	movl   $0x0,-0x2414(%ebp)
 8049d69:	00 00 00 
 8049d6c:	eb 20                	jmp    8049d8e <initialize_bomb+0x12a>
 8049d6e:	8b 85 ec db ff ff    	mov    -0x2414(%ebp),%eax
 8049d74:	8b 04 85 c0 dd 04 08 	mov    0x804ddc0(,%eax,4),%eax
 8049d7b:	83 ec 0c             	sub    $0xc,%esp
 8049d7e:	50                   	push   %eax
 8049d7f:	e8 bc f3 ff ff       	call   8049140 <puts@plt>
 8049d84:	83 c4 10             	add    $0x10,%esp
 8049d87:	83 85 ec db ff ff 01 	addl   $0x1,-0x2414(%ebp)
 8049d8e:	8b 85 ec db ff ff    	mov    -0x2414(%ebp),%eax
 8049d94:	8b 04 85 c0 dd 04 08 	mov    0x804ddc0(,%eax,4),%eax
 8049d9b:	85 c0                	test   %eax,%eax
 8049d9d:	75 cf                	jne    8049d6e <initialize_bomb+0x10a>
 8049d9f:	83 ec 0c             	sub    $0xc,%esp
 8049da2:	6a 08                	push   $0x8
 8049da4:	e8 a7 f3 ff ff       	call   8049150 <exit@plt>
 8049da9:	83 ec 0c             	sub    $0xc,%esp
 8049dac:	8d 85 f4 df ff ff    	lea    -0x200c(%ebp),%eax
 8049db2:	50                   	push   %eax
 8049db3:	e8 d2 0c 00 00       	call   804aa8a <init_driver>
 8049db8:	83 c4 10             	add    $0x10,%esp
 8049dbb:	85 c0                	test   %eax,%eax
 8049dbd:	79 21                	jns    8049de0 <initialize_bomb+0x17c>
 8049dbf:	83 ec 08             	sub    $0x8,%esp
 8049dc2:	8d 85 f4 df ff ff    	lea    -0x200c(%ebp),%eax
 8049dc8:	50                   	push   %eax
 8049dc9:	68 03 b4 04 08       	push   $0x804b403
 8049dce:	e8 ad f2 ff ff       	call   8049080 <printf@plt>
 8049dd3:	83 c4 10             	add    $0x10,%esp
 8049dd6:	83 ec 0c             	sub    $0xc,%esp
 8049dd9:	6a 08                	push   $0x8
 8049ddb:	e8 70 f3 ff ff       	call   8049150 <exit@plt>
 8049de0:	90                   	nop
 8049de1:	8b 45 f4             	mov    -0xc(%ebp),%eax
 8049de4:	65 2b 05 14 00 00 00 	sub    %gs:0x14,%eax
 8049deb:	74 05                	je     8049df2 <initialize_bomb+0x18e>
 8049ded:	e8 ee f2 ff ff       	call   80490e0 <__stack_chk_fail@plt>
 8049df2:	c9                   	leave  
 8049df3:	c3                   	ret    

08049df4 <validate>:
 8049df4:	55                   	push   %ebp
 8049df5:	89 e5                	mov    %esp,%ebp
 8049df7:	8d 84 24 00 c0 ff ff 	lea    -0x4000(%esp),%eax
 8049dfe:	81 ec 00 10 00 00    	sub    $0x1000,%esp
 8049e04:	83 0c 24 00          	orl    $0x0,(%esp)
 8049e08:	39 c4                	cmp    %eax,%esp
 8049e0a:	75 f2                	jne    8049dfe <validate+0xa>
 8049e0c:	83 ec 18             	sub    $0x18,%esp
 8049e0f:	65 a1 14 00 00 00    	mov    %gs:0x14,%eax
 8049e15:	89 45 f4             	mov    %eax,-0xc(%ebp)
 8049e18:	31 c0                	xor    %eax,%eax
 8049e1a:	a1 80 d1 04 08       	mov    0x804d180,%eax
 8049e1f:	85 c0                	test   %eax,%eax
 8049e21:	75 15                	jne    8049e38 <validate+0x44>
 8049e23:	83 ec 0c             	sub    $0xc,%esp
 8049e26:	68 18 b4 04 08       	push   $0x804b418
 8049e2b:	e8 10 f3 ff ff       	call   8049140 <puts@plt>
 8049e30:	83 c4 10             	add    $0x10,%esp
 8049e33:	e9 3c 01 00 00       	jmp    8049f74 <validate+0x180>
 8049e38:	83 7d 08 00          	cmpl   $0x0,0x8(%ebp)
 8049e3c:	78 06                	js     8049e44 <validate+0x50>
 8049e3e:	83 7d 08 04          	cmpl   $0x4,0x8(%ebp)
 8049e42:	7e 15                	jle    8049e59 <validate+0x65>
 8049e44:	83 ec 0c             	sub    $0xc,%esp
 8049e47:	68 44 b4 04 08       	push   $0x804b444
 8049e4c:	e8 ef f2 ff ff       	call   8049140 <puts@plt>
 8049e51:	83 c4 10             	add    $0x10,%esp
 8049e54:	e9 1b 01 00 00       	jmp    8049f74 <validate+0x180>
 8049e59:	c7 05 94 d1 04 08 01 	movl   $0x1,0x804d194
 8049e60:	00 00 00 
 8049e63:	8b 45 08             	mov    0x8(%ebp),%eax
 8049e66:	8b 04 85 00 d1 04 08 	mov    0x804d100(,%eax,4),%eax
 8049e6d:	8d 50 ff             	lea    -0x1(%eax),%edx
 8049e70:	8b 45 08             	mov    0x8(%ebp),%eax
 8049e73:	89 14 85 00 d1 04 08 	mov    %edx,0x804d100(,%eax,4)
 8049e7a:	8b 45 08             	mov    0x8(%ebp),%eax
 8049e7d:	8b 04 85 00 d1 04 08 	mov    0x804d100(,%eax,4),%eax
 8049e84:	85 c0                	test   %eax,%eax
 8049e86:	7e 15                	jle    8049e9d <validate+0xa9>
 8049e88:	83 ec 0c             	sub    $0xc,%esp
 8049e8b:	68 6a b4 04 08       	push   $0x804b46a
 8049e90:	e8 ab f2 ff ff       	call   8049140 <puts@plt>
 8049e95:	83 c4 10             	add    $0x10,%esp
 8049e98:	e9 d7 00 00 00       	jmp    8049f74 <validate+0x180>
 8049e9d:	83 ec 0c             	sub    $0xc,%esp
 8049ea0:	68 75 b4 04 08       	push   $0x804b475
 8049ea5:	e8 96 f2 ff ff       	call   8049140 <puts@plt>
 8049eaa:	83 c4 10             	add    $0x10,%esp
 8049ead:	a1 84 d1 04 08       	mov    0x804d184,%eax
 8049eb2:	85 c0                	test   %eax,%eax
 8049eb4:	0f 84 aa 00 00 00    	je     8049f64 <validate+0x170>
 8049eba:	83 ec 0c             	sub    $0xc,%esp
 8049ebd:	68 a0 d1 04 08       	push   $0x804d1a0
 8049ec2:	e8 b9 f2 ff ff       	call   8049180 <strlen@plt>
 8049ec7:	83 c4 10             	add    $0x10,%esp
 8049eca:	83 c0 20             	add    $0x20,%eax
 8049ecd:	3d 00 20 00 00       	cmp    $0x2000,%eax
 8049ed2:	76 15                	jbe    8049ee9 <validate+0xf5>
 8049ed4:	83 ec 0c             	sub    $0xc,%esp
 8049ed7:	68 7c b4 04 08       	push   $0x804b47c
 8049edc:	e8 5f f2 ff ff       	call   8049140 <puts@plt>
 8049ee1:	83 c4 10             	add    $0x10,%esp
 8049ee4:	e9 8b 00 00 00       	jmp    8049f74 <validate+0x180>
 8049ee9:	a1 90 d1 04 08       	mov    0x804d190,%eax
 8049eee:	83 ec 0c             	sub    $0xc,%esp
 8049ef1:	68 a0 d1 04 08       	push   $0x804d1a0
 8049ef6:	50                   	push   %eax
 8049ef7:	ff 75 08             	push   0x8(%ebp)
 8049efa:	68 b3 b4 04 08       	push   $0x804b4b3
 8049eff:	8d 85 f4 bf ff ff    	lea    -0x400c(%ebp),%eax
 8049f05:	50                   	push   %eax
 8049f06:	e8 05 f3 ff ff       	call   8049210 <sprintf@plt>
 8049f0b:	83 c4 20             	add    $0x20,%esp
 8049f0e:	a1 80 d1 04 08       	mov    0x804d180,%eax
 8049f13:	8d 95 f4 df ff ff    	lea    -0x200c(%ebp),%edx
 8049f19:	52                   	push   %edx
 8049f1a:	6a 00                	push   $0x0
 8049f1c:	8d 95 f4 bf ff ff    	lea    -0x400c(%ebp),%edx
 8049f22:	52                   	push   %edx
 8049f23:	50                   	push   %eax
 8049f24:	e8 36 0d 00 00       	call   804ac5f <driver_post>
 8049f29:	83 c4 10             	add    $0x10,%esp
 8049f2c:	89 85 f0 bf ff ff    	mov    %eax,-0x4010(%ebp)
 8049f32:	83 bd f0 bf ff ff 00 	cmpl   $0x0,-0x4010(%ebp)
 8049f39:	75 12                	jne    8049f4d <validate+0x159>
 8049f3b:	83 ec 0c             	sub    $0xc,%esp
 8049f3e:	68 bc b4 04 08       	push   $0x804b4bc
 8049f43:	e8 f8 f1 ff ff       	call   8049140 <puts@plt>
 8049f48:	83 c4 10             	add    $0x10,%esp
 8049f4b:	eb 17                	jmp    8049f64 <validate+0x170>
 8049f4d:	83 ec 08             	sub    $0x8,%esp
 8049f50:	8d 85 f4 df ff ff    	lea    -0x200c(%ebp),%eax
 8049f56:	50                   	push   %eax
 8049f57:	68 ec b4 04 08       	push   $0x804b4ec
 8049f5c:	e8 1f f1 ff ff       	call   8049080 <printf@plt>
 8049f61:	83 c4 10             	add    $0x10,%esp
 8049f64:	83 ec 0c             	sub    $0xc,%esp
 8049f67:	68 2a b5 04 08       	push   $0x804b52a
 8049f6c:	e8 cf f1 ff ff       	call   8049140 <puts@plt>
 8049f71:	83 c4 10             	add    $0x10,%esp
 8049f74:	8b 45 f4             	mov    -0xc(%ebp),%eax
 8049f77:	65 2b 05 14 00 00 00 	sub    %gs:0x14,%eax
 8049f7e:	74 05                	je     8049f85 <validate+0x191>
 8049f80:	e8 5b f1 ff ff       	call   80490e0 <__stack_chk_fail@plt>
 8049f85:	c9                   	leave  
 8049f86:	c3                   	ret    

08049f87 <sigalrm_handler>:
 8049f87:	55                   	push   %ebp
 8049f88:	89 e5                	mov    %esp,%ebp
 8049f8a:	83 ec 08             	sub    $0x8,%esp
 8049f8d:	83 ec 08             	sub    $0x8,%esp
 8049f90:	6a 02                	push   $0x2
 8049f92:	68 34 b5 04 08       	push   $0x804b534
 8049f97:	e8 e4 f0 ff ff       	call   8049080 <printf@plt>
 8049f9c:	83 c4 10             	add    $0x10,%esp
 8049f9f:	83 ec 0c             	sub    $0xc,%esp
 8049fa2:	6a 01                	push   $0x1
 8049fa4:	e8 a7 f1 ff ff       	call   8049150 <exit@plt>

08049fa9 <rio_readinitb>:
 8049fa9:	55                   	push   %ebp
 8049faa:	89 e5                	mov    %esp,%ebp
 8049fac:	8b 45 08             	mov    0x8(%ebp),%eax
 8049faf:	8b 55 0c             	mov    0xc(%ebp),%edx
 8049fb2:	89 10                	mov    %edx,(%eax)
 8049fb4:	8b 45 08             	mov    0x8(%ebp),%eax
 8049fb7:	c7 40 04 00 00 00 00 	movl   $0x0,0x4(%eax)
 8049fbe:	8b 45 08             	mov    0x8(%ebp),%eax
 8049fc1:	8d 50 0c             	lea    0xc(%eax),%edx
 8049fc4:	8b 45 08             	mov    0x8(%ebp),%eax
 8049fc7:	89 50 08             	mov    %edx,0x8(%eax)
 8049fca:	90                   	nop
 8049fcb:	5d                   	pop    %ebp
 8049fcc:	c3                   	ret    

08049fcd <rio_read>:
 8049fcd:	55                   	push   %ebp
 8049fce:	89 e5                	mov    %esp,%ebp
 8049fd0:	83 ec 18             	sub    $0x18,%esp
 8049fd3:	eb 5d                	jmp    804a032 <rio_read+0x65>
 8049fd5:	8b 45 08             	mov    0x8(%ebp),%eax
 8049fd8:	8d 50 0c             	lea    0xc(%eax),%edx
 8049fdb:	8b 45 08             	mov    0x8(%ebp),%eax
 8049fde:	8b 00                	mov    (%eax),%eax
 8049fe0:	83 ec 04             	sub    $0x4,%esp
 8049fe3:	68 00 20 00 00       	push   $0x2000
 8049fe8:	52                   	push   %edx
 8049fe9:	50                   	push   %eax
 8049fea:	e8 71 f0 ff ff       	call   8049060 <read@plt>
 8049fef:	83 c4 10             	add    $0x10,%esp
 8049ff2:	8b 55 08             	mov    0x8(%ebp),%edx
 8049ff5:	89 42 04             	mov    %eax,0x4(%edx)
 8049ff8:	8b 45 08             	mov    0x8(%ebp),%eax
 8049ffb:	8b 40 04             	mov    0x4(%eax),%eax
 8049ffe:	85 c0                	test   %eax,%eax
 804a000:	79 13                	jns    804a015 <rio_read+0x48>
 804a002:	e8 d9 f1 ff ff       	call   80491e0 <__errno_location@plt>
 804a007:	8b 00                	mov    (%eax),%eax
 804a009:	83 f8 04             	cmp    $0x4,%eax
 804a00c:	74 24                	je     804a032 <rio_read+0x65>
 804a00e:	b8 ff ff ff ff       	mov    $0xffffffff,%eax
 804a013:	eb 7f                	jmp    804a094 <rio_read+0xc7>
 804a015:	8b 45 08             	mov    0x8(%ebp),%eax
 804a018:	8b 40 04             	mov    0x4(%eax),%eax
 804a01b:	85 c0                	test   %eax,%eax
 804a01d:	75 07                	jne    804a026 <rio_read+0x59>
 804a01f:	b8 00 00 00 00       	mov    $0x0,%eax
 804a024:	eb 6e                	jmp    804a094 <rio_read+0xc7>
 804a026:	8b 45 08             	mov    0x8(%ebp),%eax
 804a029:	8d 50 0c             	lea    0xc(%eax),%edx
 804a02c:	8b 45 08             	mov    0x8(%ebp),%eax
 804a02f:	89 50 08             	mov    %edx,0x8(%eax)
 804a032:	8b 45 08             	mov    0x8(%ebp),%eax
 804a035:	8b 40 04             	mov    0x4(%eax),%eax
 804a038:	85 c0                	test   %eax,%eax
 804a03a:	7e 99                	jle    8049fd5 <rio_read+0x8>
 804a03c:	8b 45 10             	mov    0x10(%ebp),%eax
 804a03f:	89 45 f4             	mov    %eax,-0xc(%ebp)
 804a042:	8b 45 08             	mov    0x8(%ebp),%eax
 804a045:	8b 40 04             	mov    0x4(%eax),%eax
 804a048:	39 45 10             	cmp    %eax,0x10(%ebp)
 804a04b:	76 09                	jbe    804a056 <rio_read+0x89>
 804a04d:	8b 45 08             	mov    0x8(%ebp),%eax
 804a050:	8b 40 04             	mov    0x4(%eax),%eax
 804a053:	89 45 f4             	mov    %eax,-0xc(%ebp)
 804a056:	8b 55 f4             	mov    -0xc(%ebp),%edx
 804a059:	8b 45 08             	mov    0x8(%ebp),%eax
 804a05c:	8b 40 08             	mov    0x8(%eax),%eax
 804a05f:	83 ec 04             	sub    $0x4,%esp
 804a062:	52                   	push   %edx
 804a063:	50                   	push   %eax
 804a064:	ff 75 0c             	push   0xc(%ebp)
 804a067:	e8 44 f0 ff ff       	call   80490b0 <memcpy@plt>
 804a06c:	83 c4 10             	add    $0x10,%esp
 804a06f:	8b 45 08             	mov    0x8(%ebp),%eax
 804a072:	8b 50 08             	mov    0x8(%eax),%edx
 804a075:	8b 45 f4             	mov    -0xc(%ebp),%eax
 804a078:	01 c2                	add    %eax,%edx
 804a07a:	8b 45 08             	mov    0x8(%ebp),%eax
 804a07d:	89 50 08             	mov    %edx,0x8(%eax)
 804a080:	8b 45 08             	mov    0x8(%ebp),%eax
 804a083:	8b 40 04             	mov    0x4(%eax),%eax
 804a086:	2b 45 f4             	sub    -0xc(%ebp),%eax
 804a089:	89 c2                	mov    %eax,%edx
 804a08b:	8b 45 08             	mov    0x8(%ebp),%eax
 804a08e:	89 50 04             	mov    %edx,0x4(%eax)
 804a091:	8b 45 f4             	mov    -0xc(%ebp),%eax
 804a094:	c9                   	leave  
 804a095:	c3                   	ret    

0804a096 <rio_readlineb>:
 804a096:	55                   	push   %ebp
 804a097:	89 e5                	mov    %esp,%ebp
 804a099:	83 ec 38             	sub    $0x38,%esp
 804a09c:	8b 45 08             	mov    0x8(%ebp),%eax
 804a09f:	89 45 d4             	mov    %eax,-0x2c(%ebp)
 804a0a2:	8b 45 0c             	mov    0xc(%ebp),%eax
 804a0a5:	89 45 d0             	mov    %eax,-0x30(%ebp)
 804a0a8:	65 a1 14 00 00 00    	mov    %gs:0x14,%eax
 804a0ae:	89 45 f4             	mov    %eax,-0xc(%ebp)
 804a0b1:	31 c0                	xor    %eax,%eax
 804a0b3:	8b 45 d0             	mov    -0x30(%ebp),%eax
 804a0b6:	89 45 ec             	mov    %eax,-0x14(%ebp)
 804a0b9:	c7 45 e8 01 00 00 00 	movl   $0x1,-0x18(%ebp)
 804a0c0:	eb 54                	jmp    804a116 <rio_readlineb+0x80>
 804a0c2:	83 ec 04             	sub    $0x4,%esp
 804a0c5:	6a 01                	push   $0x1
 804a0c7:	8d 45 e7             	lea    -0x19(%ebp),%eax
 804a0ca:	50                   	push   %eax
 804a0cb:	ff 75 d4             	push   -0x2c(%ebp)
 804a0ce:	e8 fa fe ff ff       	call   8049fcd <rio_read>
 804a0d3:	83 c4 10             	add    $0x10,%esp
 804a0d6:	89 45 f0             	mov    %eax,-0x10(%ebp)
 804a0d9:	83 7d f0 01          	cmpl   $0x1,-0x10(%ebp)
 804a0dd:	75 19                	jne    804a0f8 <rio_readlineb+0x62>
 804a0df:	8b 45 ec             	mov    -0x14(%ebp),%eax
 804a0e2:	8d 50 01             	lea    0x1(%eax),%edx
 804a0e5:	89 55 ec             	mov    %edx,-0x14(%ebp)
 804a0e8:	0f b6 55 e7          	movzbl -0x19(%ebp),%edx
 804a0ec:	88 10                	mov    %dl,(%eax)
 804a0ee:	0f b6 45 e7          	movzbl -0x19(%ebp),%eax
 804a0f2:	3c 0a                	cmp    $0xa,%al
 804a0f4:	75 1c                	jne    804a112 <rio_readlineb+0x7c>
 804a0f6:	eb 29                	jmp    804a121 <rio_readlineb+0x8b>
 804a0f8:	83 7d f0 00          	cmpl   $0x0,-0x10(%ebp)
 804a0fc:	75 0d                	jne    804a10b <rio_readlineb+0x75>
 804a0fe:	83 7d e8 01          	cmpl   $0x1,-0x18(%ebp)
 804a102:	75 1c                	jne    804a120 <rio_readlineb+0x8a>
 804a104:	b8 00 00 00 00       	mov    $0x0,%eax
 804a109:	eb 1f                	jmp    804a12a <rio_readlineb+0x94>
 804a10b:	b8 ff ff ff ff       	mov    $0xffffffff,%eax
 804a110:	eb 18                	jmp    804a12a <rio_readlineb+0x94>
 804a112:	83 45 e8 01          	addl   $0x1,-0x18(%ebp)
 804a116:	8b 45 e8             	mov    -0x18(%ebp),%eax
 804a119:	39 45 10             	cmp    %eax,0x10(%ebp)
 804a11c:	77 a4                	ja     804a0c2 <rio_readlineb+0x2c>
 804a11e:	eb 01                	jmp    804a121 <rio_readlineb+0x8b>
 804a120:	90                   	nop
 804a121:	8b 45 ec             	mov    -0x14(%ebp),%eax
 804a124:	c6 00 00             	movb   $0x0,(%eax)
 804a127:	8b 45 e8             	mov    -0x18(%ebp),%eax
 804a12a:	8b 55 f4             	mov    -0xc(%ebp),%edx
 804a12d:	65 2b 15 14 00 00 00 	sub    %gs:0x14,%edx
 804a134:	74 05                	je     804a13b <rio_readlineb+0xa5>
 804a136:	e8 a5 ef ff ff       	call   80490e0 <__stack_chk_fail@plt>
 804a13b:	c9                   	leave  
 804a13c:	c3                   	ret    

0804a13d <rio_writen>:
 804a13d:	55                   	push   %ebp
 804a13e:	89 e5                	mov    %esp,%ebp
 804a140:	83 ec 18             	sub    $0x18,%esp
 804a143:	8b 45 10             	mov    0x10(%ebp),%eax
 804a146:	89 45 ec             	mov    %eax,-0x14(%ebp)
 804a149:	8b 45 0c             	mov    0xc(%ebp),%eax
 804a14c:	89 45 f4             	mov    %eax,-0xc(%ebp)
 804a14f:	eb 45                	jmp    804a196 <rio_writen+0x59>
 804a151:	83 ec 04             	sub    $0x4,%esp
 804a154:	ff 75 ec             	push   -0x14(%ebp)
 804a157:	ff 75 f4             	push   -0xc(%ebp)
 804a15a:	ff 75 08             	push   0x8(%ebp)
 804a15d:	e8 2e f0 ff ff       	call   8049190 <write@plt>
 804a162:	83 c4 10             	add    $0x10,%esp
 804a165:	89 45 f0             	mov    %eax,-0x10(%ebp)
 804a168:	83 7d f0 00          	cmpl   $0x0,-0x10(%ebp)
 804a16c:	7f 1c                	jg     804a18a <rio_writen+0x4d>
 804a16e:	e8 6d f0 ff ff       	call   80491e0 <__errno_location@plt>
 804a173:	8b 00                	mov    (%eax),%eax
 804a175:	83 f8 04             	cmp    $0x4,%eax
 804a178:	75 09                	jne    804a183 <rio_writen+0x46>
 804a17a:	c7 45 f0 00 00 00 00 	movl   $0x0,-0x10(%ebp)
 804a181:	eb 07                	jmp    804a18a <rio_writen+0x4d>
 804a183:	b8 ff ff ff ff       	mov    $0xffffffff,%eax
 804a188:	eb 15                	jmp    804a19f <rio_writen+0x62>
 804a18a:	8b 45 f0             	mov    -0x10(%ebp),%eax
 804a18d:	29 45 ec             	sub    %eax,-0x14(%ebp)
 804a190:	8b 45 f0             	mov    -0x10(%ebp),%eax
 804a193:	01 45 f4             	add    %eax,-0xc(%ebp)
 804a196:	83 7d ec 00          	cmpl   $0x0,-0x14(%ebp)
 804a19a:	75 b5                	jne    804a151 <rio_writen+0x14>
 804a19c:	8b 45 10             	mov    0x10(%ebp),%eax
 804a19f:	c9                   	leave  
 804a1a0:	c3                   	ret    

0804a1a1 <urlencode>:
 804a1a1:	55                   	push   %ebp
 804a1a2:	89 e5                	mov    %esp,%ebp
 804a1a4:	83 ec 28             	sub    $0x28,%esp
 804a1a7:	8b 45 08             	mov    0x8(%ebp),%eax
 804a1aa:	89 45 e4             	mov    %eax,-0x1c(%ebp)
 804a1ad:	8b 45 0c             	mov    0xc(%ebp),%eax
 804a1b0:	89 45 e0             	mov    %eax,-0x20(%ebp)
 804a1b3:	65 a1 14 00 00 00    	mov    %gs:0x14,%eax
 804a1b9:	89 45 f4             	mov    %eax,-0xc(%ebp)
 804a1bc:	31 c0                	xor    %eax,%eax
 804a1be:	83 ec 0c             	sub    $0xc,%esp
 804a1c1:	ff 75 e4             	push   -0x1c(%ebp)
 804a1c4:	e8 b7 ef ff ff       	call   8049180 <strlen@plt>
 804a1c9:	83 c4 10             	add    $0x10,%esp
 804a1cc:	89 45 e8             	mov    %eax,-0x18(%ebp)
 804a1cf:	e9 0e 01 00 00       	jmp    804a2e2 <urlencode+0x141>
 804a1d4:	8b 45 e4             	mov    -0x1c(%ebp),%eax
 804a1d7:	0f b6 00             	movzbl (%eax),%eax
 804a1da:	3c 2a                	cmp    $0x2a,%al
 804a1dc:	74 5a                	je     804a238 <urlencode+0x97>
 804a1de:	8b 45 e4             	mov    -0x1c(%ebp),%eax
 804a1e1:	0f b6 00             	movzbl (%eax),%eax
 804a1e4:	3c 2d                	cmp    $0x2d,%al
 804a1e6:	74 50                	je     804a238 <urlencode+0x97>
 804a1e8:	8b 45 e4             	mov    -0x1c(%ebp),%eax
 804a1eb:	0f b6 00             	movzbl (%eax),%eax
 804a1ee:	3c 2e                	cmp    $0x2e,%al
 804a1f0:	74 46                	je     804a238 <urlencode+0x97>
 804a1f2:	8b 45 e4             	mov    -0x1c(%ebp),%eax
 804a1f5:	0f b6 00             	movzbl (%eax),%eax
 804a1f8:	3c 5f                	cmp    $0x5f,%al
 804a1fa:	74 3c                	je     804a238 <urlencode+0x97>
 804a1fc:	8b 45 e4             	mov    -0x1c(%ebp),%eax
 804a1ff:	0f b6 00             	movzbl (%eax),%eax
 804a202:	3c 2f                	cmp    $0x2f,%al
 804a204:	76 0a                	jbe    804a210 <urlencode+0x6f>
 804a206:	8b 45 e4             	mov    -0x1c(%ebp),%eax
 804a209:	0f b6 00             	movzbl (%eax),%eax
 804a20c:	3c 39                	cmp    $0x39,%al
 804a20e:	76 28                	jbe    804a238 <urlencode+0x97>
 804a210:	8b 45 e4             	mov    -0x1c(%ebp),%eax
 804a213:	0f b6 00             	movzbl (%eax),%eax
 804a216:	3c 40                	cmp    $0x40,%al
 804a218:	76 0a                	jbe    804a224 <urlencode+0x83>
 804a21a:	8b 45 e4             	mov    -0x1c(%ebp),%eax
 804a21d:	0f b6 00             	movzbl (%eax),%eax
 804a220:	3c 5a                	cmp    $0x5a,%al
 804a222:	76 14                	jbe    804a238 <urlencode+0x97>
 804a224:	8b 45 e4             	mov    -0x1c(%ebp),%eax
 804a227:	0f b6 00             	movzbl (%eax),%eax
 804a22a:	3c 60                	cmp    $0x60,%al
 804a22c:	76 20                	jbe    804a24e <urlencode+0xad>
 804a22e:	8b 45 e4             	mov    -0x1c(%ebp),%eax
 804a231:	0f b6 00             	movzbl (%eax),%eax
 804a234:	3c 7a                	cmp    $0x7a,%al
 804a236:	77 16                	ja     804a24e <urlencode+0xad>
 804a238:	8b 45 e0             	mov    -0x20(%ebp),%eax
 804a23b:	8d 50 01             	lea    0x1(%eax),%edx
 804a23e:	89 55 e0             	mov    %edx,-0x20(%ebp)
 804a241:	8b 55 e4             	mov    -0x1c(%ebp),%edx
 804a244:	0f b6 12             	movzbl (%edx),%edx
 804a247:	88 10                	mov    %dl,(%eax)
 804a249:	e9 90 00 00 00       	jmp    804a2de <urlencode+0x13d>
 804a24e:	8b 45 e4             	mov    -0x1c(%ebp),%eax
 804a251:	0f b6 00             	movzbl (%eax),%eax
 804a254:	3c 20                	cmp    $0x20,%al
 804a256:	75 0e                	jne    804a266 <urlencode+0xc5>
 804a258:	8b 45 e0             	mov    -0x20(%ebp),%eax
 804a25b:	8d 50 01             	lea    0x1(%eax),%edx
 804a25e:	89 55 e0             	mov    %edx,-0x20(%ebp)
 804a261:	c6 00 2b             	movb   $0x2b,(%eax)
 804a264:	eb 78                	jmp    804a2de <urlencode+0x13d>
 804a266:	8b 45 e4             	mov    -0x1c(%ebp),%eax
 804a269:	0f b6 00             	movzbl (%eax),%eax
 804a26c:	3c 1f                	cmp    $0x1f,%al
 804a26e:	76 0a                	jbe    804a27a <urlencode+0xd9>
 804a270:	8b 45 e4             	mov    -0x1c(%ebp),%eax
 804a273:	0f b6 00             	movzbl (%eax),%eax
 804a276:	84 c0                	test   %al,%al
 804a278:	79 0a                	jns    804a284 <urlencode+0xe3>
 804a27a:	8b 45 e4             	mov    -0x1c(%ebp),%eax
 804a27d:	0f b6 00             	movzbl (%eax),%eax
 804a280:	3c 09                	cmp    $0x9,%al
 804a282:	75 53                	jne    804a2d7 <urlencode+0x136>
 804a284:	8b 45 e4             	mov    -0x1c(%ebp),%eax
 804a287:	0f b6 00             	movzbl (%eax),%eax
 804a28a:	0f b6 c0             	movzbl %al,%eax
 804a28d:	83 ec 04             	sub    $0x4,%esp
 804a290:	50                   	push   %eax
 804a291:	68 58 b5 04 08       	push   $0x804b558
 804a296:	8d 45 ec             	lea    -0x14(%ebp),%eax
 804a299:	50                   	push   %eax
 804a29a:	e8 71 ef ff ff       	call   8049210 <sprintf@plt>
 804a29f:	83 c4 10             	add    $0x10,%esp
 804a2a2:	0f b6 4d ec          	movzbl -0x14(%ebp),%ecx
 804a2a6:	8b 45 e0             	mov    -0x20(%ebp),%eax
 804a2a9:	8d 50 01             	lea    0x1(%eax),%edx
 804a2ac:	89 55 e0             	mov    %edx,-0x20(%ebp)
 804a2af:	89 ca                	mov    %ecx,%edx
 804a2b1:	88 10                	mov    %dl,(%eax)
 804a2b3:	0f b6 4d ed          	movzbl -0x13(%ebp),%ecx
 804a2b7:	8b 45 e0             	mov    -0x20(%ebp),%eax
 804a2ba:	8d 50 01             	lea    0x1(%eax),%edx
 804a2bd:	89 55 e0             	mov    %edx,-0x20(%ebp)
 804a2c0:	89 ca                	mov    %ecx,%edx
 804a2c2:	88 10                	mov    %dl,(%eax)
 804a2c4:	0f b6 4d ee          	movzbl -0x12(%ebp),%ecx
 804a2c8:	8b 45 e0             	mov    -0x20(%ebp),%eax
 804a2cb:	8d 50 01             	lea    0x1(%eax),%edx
 804a2ce:	89 55 e0             	mov    %edx,-0x20(%ebp)
 804a2d1:	89 ca                	mov    %ecx,%edx
 804a2d3:	88 10                	mov    %dl,(%eax)
 804a2d5:	eb 07                	jmp    804a2de <urlencode+0x13d>
 804a2d7:	b8 ff ff ff ff       	mov    $0xffffffff,%eax
 804a2dc:	eb 1a                	jmp    804a2f8 <urlencode+0x157>
 804a2de:	83 45 e4 01          	addl   $0x1,-0x1c(%ebp)
 804a2e2:	8b 45 e8             	mov    -0x18(%ebp),%eax
 804a2e5:	8d 50 ff             	lea    -0x1(%eax),%edx
 804a2e8:	89 55 e8             	mov    %edx,-0x18(%ebp)
 804a2eb:	85 c0                	test   %eax,%eax
 804a2ed:	0f 85 e1 fe ff ff    	jne    804a1d4 <urlencode+0x33>
 804a2f3:	b8 00 00 00 00       	mov    $0x0,%eax
 804a2f8:	8b 55 f4             	mov    -0xc(%ebp),%edx
 804a2fb:	65 2b 15 14 00 00 00 	sub    %gs:0x14,%edx
 804a302:	74 05                	je     804a309 <urlencode+0x168>
 804a304:	e8 d7 ed ff ff       	call   80490e0 <__stack_chk_fail@plt>
 804a309:	c9                   	leave  
 804a30a:	c3                   	ret    

0804a30b <submitr>:
 804a30b:	55                   	push   %ebp
 804a30c:	89 e5                	mov    %esp,%ebp
 804a30e:	57                   	push   %edi
 804a30f:	56                   	push   %esi
 804a310:	53                   	push   %ebx
 804a311:	8d 84 24 00 60 ff ff 	lea    -0xa000(%esp),%eax
 804a318:	81 ec 00 10 00 00    	sub    $0x1000,%esp
 804a31e:	83 0c 24 00          	orl    $0x0,(%esp)
 804a322:	39 c4                	cmp    %eax,%esp
 804a324:	75 f2                	jne    804a318 <submitr+0xd>
 804a326:	83 ec 6c             	sub    $0x6c,%esp
 804a329:	8b 45 08             	mov    0x8(%ebp),%eax
 804a32c:	89 85 a4 5f ff ff    	mov    %eax,-0xa05c(%ebp)
 804a332:	8b 45 10             	mov    0x10(%ebp),%eax
 804a335:	89 85 a0 5f ff ff    	mov    %eax,-0xa060(%ebp)
 804a33b:	8b 45 14             	mov    0x14(%ebp),%eax
 804a33e:	89 85 9c 5f ff ff    	mov    %eax,-0xa064(%ebp)
 804a344:	8b 45 18             	mov    0x18(%ebp),%eax
 804a347:	89 85 98 5f ff ff    	mov    %eax,-0xa068(%ebp)
 804a34d:	8b 45 1c             	mov    0x1c(%ebp),%eax
 804a350:	89 85 94 5f ff ff    	mov    %eax,-0xa06c(%ebp)
 804a356:	8b 45 20             	mov    0x20(%ebp),%eax
 804a359:	89 85 90 5f ff ff    	mov    %eax,-0xa070(%ebp)
 804a35f:	65 a1 14 00 00 00    	mov    %gs:0x14,%eax
 804a365:	89 45 e4             	mov    %eax,-0x1c(%ebp)
 804a368:	31 c0                	xor    %eax,%eax
 804a36a:	c7 85 b4 5f ff ff 00 	movl   $0x0,-0xa04c(%ebp)
 804a371:	00 00 00 
 804a374:	83 ec 04             	sub    $0x4,%esp
 804a377:	6a 00                	push   $0x0
 804a379:	6a 01                	push   $0x1
 804a37b:	6a 02                	push   $0x2
 804a37d:	e8 9e ee ff ff       	call   8049220 <socket@plt>
 804a382:	83 c4 10             	add    $0x10,%esp
 804a385:	89 85 b8 5f ff ff    	mov    %eax,-0xa048(%ebp)
 804a38b:	83 bd b8 5f ff ff 00 	cmpl   $0x0,-0xa048(%ebp)
 804a392:	79 54                	jns    804a3e8 <submitr+0xdd>
 804a394:	8b 85 90 5f ff ff    	mov    -0xa070(%ebp),%eax
 804a39a:	c7 00 45 72 72 6f    	movl   $0x6f727245,(%eax)
 804a3a0:	c7 40 04 72 3a 20 43 	movl   $0x43203a72,0x4(%eax)
 804a3a7:	c7 40 08 6c 69 65 6e 	movl   $0x6e65696c,0x8(%eax)
 804a3ae:	c7 40 0c 74 20 75 6e 	movl   $0x6e752074,0xc(%eax)
 804a3b5:	c7 40 10 61 62 6c 65 	movl   $0x656c6261,0x10(%eax)
 804a3bc:	c7 40 14 20 74 6f 20 	movl   $0x206f7420,0x14(%eax)
 804a3c3:	c7 40 18 63 72 65 61 	movl   $0x61657263,0x18(%eax)
 804a3ca:	c7 40 1c 74 65 20 73 	movl   $0x73206574,0x1c(%eax)
 804a3d1:	c7 40 20 6f 63 6b 65 	movl   $0x656b636f,0x20(%eax)
 804a3d8:	66 c7 40 24 74 00    	movw   $0x74,0x24(%eax)
 804a3de:	b8 ff ff ff ff       	mov    $0xffffffff,%eax
 804a3e3:	e9 4a 06 00 00       	jmp    804aa32 <submitr+0x727>
 804a3e8:	83 ec 0c             	sub    $0xc,%esp
 804a3eb:	ff b5 a4 5f ff ff    	push   -0xa05c(%ebp)
 804a3f1:	e8 5a ee ff ff       	call   8049250 <gethostbyname@plt>
 804a3f6:	83 c4 10             	add    $0x10,%esp
 804a3f9:	89 85 bc 5f ff ff    	mov    %eax,-0xa044(%ebp)
 804a3ff:	83 bd bc 5f ff ff 00 	cmpl   $0x0,-0xa044(%ebp)
 804a406:	75 37                	jne    804a43f <submitr+0x134>
 804a408:	83 ec 04             	sub    $0x4,%esp
 804a40b:	ff b5 a4 5f ff ff    	push   -0xa05c(%ebp)
 804a411:	68 60 b5 04 08       	push   $0x804b560
 804a416:	ff b5 90 5f ff ff    	push   -0xa070(%ebp)
 804a41c:	e8 ef ed ff ff       	call   8049210 <sprintf@plt>
 804a421:	83 c4 10             	add    $0x10,%esp
 804a424:	83 ec 0c             	sub    $0xc,%esp
 804a427:	ff b5 b8 5f ff ff    	push   -0xa048(%ebp)
 804a42d:	e8 3e ee ff ff       	call   8049270 <close@plt>
 804a432:	83 c4 10             	add    $0x10,%esp
 804a435:	b8 ff ff ff ff       	mov    $0xffffffff,%eax
 804a43a:	e9 f3 05 00 00       	jmp    804aa32 <submitr+0x727>
 804a43f:	8d 85 c8 5f ff ff    	lea    -0xa038(%ebp),%eax
 804a445:	c7 00 00 00 00 00    	movl   $0x0,(%eax)
 804a44b:	c7 40 04 00 00 00 00 	movl   $0x0,0x4(%eax)
 804a452:	c7 40 08 00 00 00 00 	movl   $0x0,0x8(%eax)
 804a459:	c7 40 0c 00 00 00 00 	movl   $0x0,0xc(%eax)
 804a460:	66 c7 85 c8 5f ff ff 	movw   $0x2,-0xa038(%ebp)
 804a467:	02 00 
 804a469:	8b 85 bc 5f ff ff    	mov    -0xa044(%ebp),%eax
 804a46f:	8b 40 0c             	mov    0xc(%eax),%eax
 804a472:	89 c2                	mov    %eax,%edx
 804a474:	8b 85 bc 5f ff ff    	mov    -0xa044(%ebp),%eax
 804a47a:	8b 40 10             	mov    0x10(%eax),%eax
 804a47d:	8b 00                	mov    (%eax),%eax
 804a47f:	83 ec 04             	sub    $0x4,%esp
 804a482:	52                   	push   %edx
 804a483:	50                   	push   %eax
 804a484:	8d 85 c8 5f ff ff    	lea    -0xa038(%ebp),%eax
 804a48a:	83 c0 04             	add    $0x4,%eax
 804a48d:	50                   	push   %eax
 804a48e:	e8 fd eb ff ff       	call   8049090 <memmove@plt>
 804a493:	83 c4 10             	add    $0x10,%esp
 804a496:	8b 45 0c             	mov    0xc(%ebp),%eax
 804a499:	0f b7 c0             	movzwl %ax,%eax
 804a49c:	83 ec 0c             	sub    $0xc,%esp
 804a49f:	50                   	push   %eax
 804a4a0:	e8 4b ec ff ff       	call   80490f0 <htons@plt>
 804a4a5:	83 c4 10             	add    $0x10,%esp
 804a4a8:	66 89 85 ca 5f ff ff 	mov    %ax,-0xa036(%ebp)
 804a4af:	83 ec 04             	sub    $0x4,%esp
 804a4b2:	6a 10                	push   $0x10
 804a4b4:	8d 85 c8 5f ff ff    	lea    -0xa038(%ebp),%eax
 804a4ba:	50                   	push   %eax
 804a4bb:	ff b5 b8 5f ff ff    	push   -0xa048(%ebp)
 804a4c1:	e8 9a ed ff ff       	call   8049260 <connect@plt>
 804a4c6:	83 c4 10             	add    $0x10,%esp
 804a4c9:	85 c0                	test   %eax,%eax
 804a4cb:	79 37                	jns    804a504 <submitr+0x1f9>
 804a4cd:	83 ec 04             	sub    $0x4,%esp
 804a4d0:	ff b5 a4 5f ff ff    	push   -0xa05c(%ebp)
 804a4d6:	68 8c b5 04 08       	push   $0x804b58c
 804a4db:	ff b5 90 5f ff ff    	push   -0xa070(%ebp)
 804a4e1:	e8 2a ed ff ff       	call   8049210 <sprintf@plt>
 804a4e6:	83 c4 10             	add    $0x10,%esp
 804a4e9:	83 ec 0c             	sub    $0xc,%esp
 804a4ec:	ff b5 b8 5f ff ff    	push   -0xa048(%ebp)
 804a4f2:	e8 79 ed ff ff       	call   8049270 <close@plt>
 804a4f7:	83 c4 10             	add    $0x10,%esp
 804a4fa:	b8 ff ff ff ff       	mov    $0xffffffff,%eax
 804a4ff:	e9 2e 05 00 00       	jmp    804aa32 <submitr+0x727>
 804a504:	83 ec 0c             	sub    $0xc,%esp
 804a507:	ff b5 94 5f ff ff    	push   -0xa06c(%ebp)
 804a50d:	e8 6e ec ff ff       	call   8049180 <strlen@plt>
 804a512:	83 c4 10             	add    $0x10,%esp
 804a515:	89 85 c0 5f ff ff    	mov    %eax,-0xa040(%ebp)
 804a51b:	83 ec 0c             	sub    $0xc,%esp
 804a51e:	ff b5 a0 5f ff ff    	push   -0xa060(%ebp)
 804a524:	e8 57 ec ff ff       	call   8049180 <strlen@plt>
 804a529:	83 c4 10             	add    $0x10,%esp
 804a52c:	89 c3                	mov    %eax,%ebx
 804a52e:	83 ec 0c             	sub    $0xc,%esp
 804a531:	ff b5 9c 5f ff ff    	push   -0xa064(%ebp)
 804a537:	e8 44 ec ff ff       	call   8049180 <strlen@plt>
 804a53c:	83 c4 10             	add    $0x10,%esp
 804a53f:	01 c3                	add    %eax,%ebx
 804a541:	83 ec 0c             	sub    $0xc,%esp
 804a544:	ff b5 98 5f ff ff    	push   -0xa068(%ebp)
 804a54a:	e8 31 ec ff ff       	call   8049180 <strlen@plt>
 804a54f:	83 c4 10             	add    $0x10,%esp
 804a552:	8d 0c 03             	lea    (%ebx,%eax,1),%ecx
 804a555:	8b 95 c0 5f ff ff    	mov    -0xa040(%ebp),%edx
 804a55b:	89 d0                	mov    %edx,%eax
 804a55d:	01 c0                	add    %eax,%eax
 804a55f:	01 d0                	add    %edx,%eax
 804a561:	01 c8                	add    %ecx,%eax
 804a563:	83 e8 80             	sub    $0xffffff80,%eax
 804a566:	89 85 c4 5f ff ff    	mov    %eax,-0xa03c(%ebp)
 804a56c:	81 bd c4 5f ff ff 00 	cmpl   $0x2000,-0xa03c(%ebp)
 804a573:	20 00 00 
 804a576:	0f 86 82 00 00 00    	jbe    804a5fe <submitr+0x2f3>
 804a57c:	8b 85 90 5f ff ff    	mov    -0xa070(%ebp),%eax
 804a582:	c7 00 45 72 72 6f    	movl   $0x6f727245,(%eax)
 804a588:	c7 40 04 72 3a 20 52 	movl   $0x52203a72,0x4(%eax)
 804a58f:	c7 40 08 65 73 75 6c 	movl   $0x6c757365,0x8(%eax)
 804a596:	c7 40 0c 74 20 73 74 	movl   $0x74732074,0xc(%eax)
 804a59d:	c7 40 10 72 69 6e 67 	movl   $0x676e6972,0x10(%eax)
 804a5a4:	c7 40 14 20 74 6f 6f 	movl   $0x6f6f7420,0x14(%eax)
 804a5ab:	c7 40 18 20 6c 61 72 	movl   $0x72616c20,0x18(%eax)
 804a5b2:	c7 40 1c 67 65 2e 20 	movl   $0x202e6567,0x1c(%eax)
 804a5b9:	c7 40 20 49 6e 63 72 	movl   $0x72636e49,0x20(%eax)
 804a5c0:	c7 40 24 65 61 73 65 	movl   $0x65736165,0x24(%eax)
 804a5c7:	c7 40 28 20 53 55 42 	movl   $0x42555320,0x28(%eax)
 804a5ce:	c7 40 2c 4d 49 54 52 	movl   $0x5254494d,0x2c(%eax)
 804a5d5:	c7 40 30 5f 4d 41 58 	movl   $0x58414d5f,0x30(%eax)
 804a5dc:	c7 40 34 42 55 46 00 	movl   $0x465542,0x34(%eax)
 804a5e3:	83 ec 0c             	sub    $0xc,%esp
 804a5e6:	ff b5 b8 5f ff ff    	push   -0xa048(%ebp)
 804a5ec:	e8 7f ec ff ff       	call   8049270 <close@plt>
 804a5f1:	83 c4 10             	add    $0x10,%esp
 804a5f4:	b8 ff ff ff ff       	mov    $0xffffffff,%eax
 804a5f9:	e9 34 04 00 00       	jmp    804aa32 <submitr+0x727>
 804a5fe:	8d 85 e4 9f ff ff    	lea    -0x601c(%ebp),%eax
 804a604:	89 c3                	mov    %eax,%ebx
 804a606:	b8 00 00 00 00       	mov    $0x0,%eax
 804a60b:	ba 00 08 00 00       	mov    $0x800,%edx
 804a610:	89 df                	mov    %ebx,%edi
 804a612:	89 d1                	mov    %edx,%ecx
 804a614:	f3 ab                	rep stos %eax,%es:(%edi)
 804a616:	83 ec 08             	sub    $0x8,%esp
 804a619:	8d 85 e4 9f ff ff    	lea    -0x601c(%ebp),%eax
 804a61f:	50                   	push   %eax
 804a620:	ff b5 94 5f ff ff    	push   -0xa06c(%ebp)
 804a626:	e8 76 fb ff ff       	call   804a1a1 <urlencode>
 804a62b:	83 c4 10             	add    $0x10,%esp
 804a62e:	85 c0                	test   %eax,%eax
 804a630:	79 53                	jns    804a685 <submitr+0x37a>
 804a632:	8b 85 90 5f ff ff    	mov    -0xa070(%ebp),%eax
 804a638:	89 c1                	mov    %eax,%ecx
 804a63a:	b8 b4 b5 04 08       	mov    $0x804b5b4,%eax
 804a63f:	ba 43 00 00 00       	mov    $0x43,%edx
 804a644:	8b 18                	mov    (%eax),%ebx
 804a646:	89 19                	mov    %ebx,(%ecx)
 804a648:	8b 5c 10 fc          	mov    -0x4(%eax,%edx,1),%ebx
 804a64c:	89 5c 11 fc          	mov    %ebx,-0x4(%ecx,%edx,1)
 804a650:	8d 59 04             	lea    0x4(%ecx),%ebx
 804a653:	83 e3 fc             	and    $0xfffffffc,%ebx
 804a656:	29 d9                	sub    %ebx,%ecx
 804a658:	29 c8                	sub    %ecx,%eax
 804a65a:	01 ca                	add    %ecx,%edx
 804a65c:	83 e2 fc             	and    $0xfffffffc,%edx
 804a65f:	c1 ea 02             	shr    $0x2,%edx
 804a662:	89 df                	mov    %ebx,%edi
 804a664:	89 c6                	mov    %eax,%esi
 804a666:	89 d1                	mov    %edx,%ecx
 804a668:	f3 a5                	rep movsl %ds:(%esi),%es:(%edi)
 804a66a:	83 ec 0c             	sub    $0xc,%esp
 804a66d:	ff b5 b8 5f ff ff    	push   -0xa048(%ebp)
 804a673:	e8 f8 eb ff ff       	call   8049270 <close@plt>
 804a678:	83 c4 10             	add    $0x10,%esp
 804a67b:	b8 ff ff ff ff       	mov    $0xffffffff,%eax
 804a680:	e9 ad 03 00 00       	jmp    804aa32 <submitr+0x727>
 804a685:	83 ec 08             	sub    $0x8,%esp
 804a688:	8d 85 e4 9f ff ff    	lea    -0x601c(%ebp),%eax
 804a68e:	50                   	push   %eax
 804a68f:	ff b5 98 5f ff ff    	push   -0xa068(%ebp)
 804a695:	ff b5 9c 5f ff ff    	push   -0xa064(%ebp)
 804a69b:	ff b5 a0 5f ff ff    	push   -0xa060(%ebp)
 804a6a1:	68 f8 b5 04 08       	push   $0x804b5f8
 804a6a6:	8d 85 e4 7f ff ff    	lea    -0x801c(%ebp),%eax
 804a6ac:	50                   	push   %eax
 804a6ad:	e8 5e eb ff ff       	call   8049210 <sprintf@plt>
 804a6b2:	83 c4 20             	add    $0x20,%esp
 804a6b5:	83 ec 0c             	sub    $0xc,%esp
 804a6b8:	8d 85 e4 7f ff ff    	lea    -0x801c(%ebp),%eax
 804a6be:	50                   	push   %eax
 804a6bf:	e8 bc ea ff ff       	call   8049180 <strlen@plt>
 804a6c4:	83 c4 10             	add    $0x10,%esp
 804a6c7:	83 ec 04             	sub    $0x4,%esp
 804a6ca:	50                   	push   %eax
 804a6cb:	8d 85 e4 7f ff ff    	lea    -0x801c(%ebp),%eax
 804a6d1:	50                   	push   %eax
 804a6d2:	ff b5 b8 5f ff ff    	push   -0xa048(%ebp)
 804a6d8:	e8 60 fa ff ff       	call   804a13d <rio_writen>
 804a6dd:	83 c4 10             	add    $0x10,%esp
 804a6e0:	85 c0                	test   %eax,%eax
 804a6e2:	79 6d                	jns    804a751 <submitr+0x446>
 804a6e4:	8b 85 90 5f ff ff    	mov    -0xa070(%ebp),%eax
 804a6ea:	c7 00 45 72 72 6f    	movl   $0x6f727245,(%eax)
 804a6f0:	c7 40 04 72 3a 20 43 	movl   $0x43203a72,0x4(%eax)
 804a6f7:	c7 40 08 6c 69 65 6e 	movl   $0x6e65696c,0x8(%eax)
 804a6fe:	c7 40 0c 74 20 75 6e 	movl   $0x6e752074,0xc(%eax)
 804a705:	c7 40 10 61 62 6c 65 	movl   $0x656c6261,0x10(%eax)
 804a70c:	c7 40 14 20 74 6f 20 	movl   $0x206f7420,0x14(%eax)
 804a713:	c7 40 18 77 72 69 74 	movl   $0x74697277,0x18(%eax)
 804a71a:	c7 40 1c 65 20 74 6f 	movl   $0x6f742065,0x1c(%eax)
 804a721:	c7 40 20 20 74 68 65 	movl   $0x65687420,0x20(%eax)
 804a728:	c7 40 24 20 73 65 72 	movl   $0x72657320,0x24(%eax)
 804a72f:	c7 40 28 76 65 72 00 	movl   $0x726576,0x28(%eax)
 804a736:	83 ec 0c             	sub    $0xc,%esp
 804a739:	ff b5 b8 5f ff ff    	push   -0xa048(%ebp)
 804a73f:	e8 2c eb ff ff       	call   8049270 <close@plt>
 804a744:	83 c4 10             	add    $0x10,%esp
 804a747:	b8 ff ff ff ff       	mov    $0xffffffff,%eax
 804a74c:	e9 e1 02 00 00       	jmp    804aa32 <submitr+0x727>
 804a751:	83 ec 08             	sub    $0x8,%esp
 804a754:	ff b5 b8 5f ff ff    	push   -0xa048(%ebp)
 804a75a:	8d 85 d8 5f ff ff    	lea    -0xa028(%ebp),%eax
 804a760:	50                   	push   %eax
 804a761:	e8 43 f8 ff ff       	call   8049fa9 <rio_readinitb>
 804a766:	83 c4 10             	add    $0x10,%esp
 804a769:	83 ec 04             	sub    $0x4,%esp
 804a76c:	68 00 20 00 00       	push   $0x2000
 804a771:	8d 85 e4 7f ff ff    	lea    -0x801c(%ebp),%eax
 804a777:	50                   	push   %eax
 804a778:	8d 85 d8 5f ff ff    	lea    -0xa028(%ebp),%eax
 804a77e:	50                   	push   %eax
 804a77f:	e8 12 f9 ff ff       	call   804a096 <rio_readlineb>
 804a784:	83 c4 10             	add    $0x10,%esp
 804a787:	85 c0                	test   %eax,%eax
 804a789:	0f 8f 81 00 00 00    	jg     804a810 <submitr+0x505>
 804a78f:	8b 85 90 5f ff ff    	mov    -0xa070(%ebp),%eax
 804a795:	c7 00 45 72 72 6f    	movl   $0x6f727245,(%eax)
 804a79b:	c7 40 04 72 3a 20 43 	movl   $0x43203a72,0x4(%eax)
 804a7a2:	c7 40 08 6c 69 65 6e 	movl   $0x6e65696c,0x8(%eax)
 804a7a9:	c7 40 0c 74 20 75 6e 	movl   $0x6e752074,0xc(%eax)
 804a7b0:	c7 40 10 61 62 6c 65 	movl   $0x656c6261,0x10(%eax)
 804a7b7:	c7 40 14 20 74 6f 20 	movl   $0x206f7420,0x14(%eax)
 804a7be:	c7 40 18 72 65 61 64 	movl   $0x64616572,0x18(%eax)
 804a7c5:	c7 40 1c 20 66 69 72 	movl   $0x72696620,0x1c(%eax)
 804a7cc:	c7 40 20 73 74 20 68 	movl   $0x68207473,0x20(%eax)
 804a7d3:	c7 40 24 65 61 64 65 	movl   $0x65646165,0x24(%eax)
 804a7da:	c7 40 28 72 20 66 72 	movl   $0x72662072,0x28(%eax)
 804a7e1:	c7 40 2c 6f 6d 20 73 	movl   $0x73206d6f,0x2c(%eax)
 804a7e8:	c7 40 30 65 72 76 65 	movl   $0x65767265,0x30(%eax)
 804a7ef:	66 c7 40 34 72 00    	movw   $0x72,0x34(%eax)
 804a7f5:	83 ec 0c             	sub    $0xc,%esp
 804a7f8:	ff b5 b8 5f ff ff    	push   -0xa048(%ebp)
 804a7fe:	e8 6d ea ff ff       	call   8049270 <close@plt>
 804a803:	83 c4 10             	add    $0x10,%esp
 804a806:	b8 ff ff ff ff       	mov    $0xffffffff,%eax
 804a80b:	e9 22 02 00 00       	jmp    804aa32 <submitr+0x727>
 804a810:	83 ec 0c             	sub    $0xc,%esp
 804a813:	8d 85 e4 df ff ff    	lea    -0x201c(%ebp),%eax
 804a819:	50                   	push   %eax
 804a81a:	8d 85 b4 5f ff ff    	lea    -0xa04c(%ebp),%eax
 804a820:	50                   	push   %eax
 804a821:	8d 85 e4 bf ff ff    	lea    -0x401c(%ebp),%eax
 804a827:	50                   	push   %eax
 804a828:	68 42 b6 04 08       	push   $0x804b642
 804a82d:	8d 85 e4 7f ff ff    	lea    -0x801c(%ebp),%eax
 804a833:	50                   	push   %eax
 804a834:	e8 87 e9 ff ff       	call   80491c0 <__isoc99_sscanf@plt>
 804a839:	83 c4 20             	add    $0x20,%esp
 804a83c:	8b 85 b4 5f ff ff    	mov    -0xa04c(%ebp),%eax
 804a842:	3d c8 00 00 00       	cmp    $0xc8,%eax
 804a847:	0f 84 d6 00 00 00    	je     804a923 <submitr+0x618>
 804a84d:	8b 85 b4 5f ff ff    	mov    -0xa04c(%ebp),%eax
 804a853:	8d 95 e4 df ff ff    	lea    -0x201c(%ebp),%edx
 804a859:	52                   	push   %edx
 804a85a:	50                   	push   %eax
 804a85b:	68 54 b6 04 08       	push   $0x804b654
 804a860:	ff b5 90 5f ff ff    	push   -0xa070(%ebp)
 804a866:	e8 a5 e9 ff ff       	call   8049210 <sprintf@plt>
 804a86b:	83 c4 10             	add    $0x10,%esp
 804a86e:	83 ec 0c             	sub    $0xc,%esp
 804a871:	ff b5 b8 5f ff ff    	push   -0xa048(%ebp)
 804a877:	e8 f4 e9 ff ff       	call   8049270 <close@plt>
 804a87c:	83 c4 10             	add    $0x10,%esp
 804a87f:	b8 ff ff ff ff       	mov    $0xffffffff,%eax
 804a884:	e9 a9 01 00 00       	jmp    804aa32 <submitr+0x727>
 804a889:	83 ec 04             	sub    $0x4,%esp
 804a88c:	68 00 20 00 00       	push   $0x2000
 804a891:	8d 85 e4 7f ff ff    	lea    -0x801c(%ebp),%eax
 804a897:	50                   	push   %eax
 804a898:	8d 85 d8 5f ff ff    	lea    -0xa028(%ebp),%eax
 804a89e:	50                   	push   %eax
 804a89f:	e8 f2 f7 ff ff       	call   804a096 <rio_readlineb>
 804a8a4:	83 c4 10             	add    $0x10,%esp
 804a8a7:	85 c0                	test   %eax,%eax
 804a8a9:	7f 78                	jg     804a923 <submitr+0x618>
 804a8ab:	8b 85 90 5f ff ff    	mov    -0xa070(%ebp),%eax
 804a8b1:	c7 00 45 72 72 6f    	movl   $0x6f727245,(%eax)
 804a8b7:	c7 40 04 72 3a 20 43 	movl   $0x43203a72,0x4(%eax)
 804a8be:	c7 40 08 6c 69 65 6e 	movl   $0x6e65696c,0x8(%eax)
 804a8c5:	c7 40 0c 74 20 75 6e 	movl   $0x6e752074,0xc(%eax)
 804a8cc:	c7 40 10 61 62 6c 65 	movl   $0x656c6261,0x10(%eax)
 804a8d3:	c7 40 14 20 74 6f 20 	movl   $0x206f7420,0x14(%eax)
 804a8da:	c7 40 18 72 65 61 64 	movl   $0x64616572,0x18(%eax)
 804a8e1:	c7 40 1c 20 68 65 61 	movl   $0x61656820,0x1c(%eax)
 804a8e8:	c7 40 20 64 65 72 73 	movl   $0x73726564,0x20(%eax)
 804a8ef:	c7 40 24 20 66 72 6f 	movl   $0x6f726620,0x24(%eax)
 804a8f6:	c7 40 28 6d 20 73 65 	movl   $0x6573206d,0x28(%eax)
 804a8fd:	c7 40 2c 72 76 65 72 	movl   $0x72657672,0x2c(%eax)
 804a904:	c6 40 30 00          	movb   $0x0,0x30(%eax)
 804a908:	83 ec 0c             	sub    $0xc,%esp
 804a90b:	ff b5 b8 5f ff ff    	push   -0xa048(%ebp)
 804a911:	e8 5a e9 ff ff       	call   8049270 <close@plt>
 804a916:	83 c4 10             	add    $0x10,%esp
 804a919:	b8 ff ff ff ff       	mov    $0xffffffff,%eax
 804a91e:	e9 0f 01 00 00       	jmp    804aa32 <submitr+0x727>
 804a923:	83 ec 08             	sub    $0x8,%esp
 804a926:	68 81 b6 04 08       	push   $0x804b681
 804a92b:	8d 85 e4 7f ff ff    	lea    -0x801c(%ebp),%eax
 804a931:	50                   	push   %eax
 804a932:	e8 09 e7 ff ff       	call   8049040 <strcmp@plt>
 804a937:	83 c4 10             	add    $0x10,%esp
 804a93a:	85 c0                	test   %eax,%eax
 804a93c:	0f 85 47 ff ff ff    	jne    804a889 <submitr+0x57e>
 804a942:	83 ec 04             	sub    $0x4,%esp
 804a945:	68 00 20 00 00       	push   $0x2000
 804a94a:	8d 85 e4 7f ff ff    	lea    -0x801c(%ebp),%eax
 804a950:	50                   	push   %eax
 804a951:	8d 85 d8 5f ff ff    	lea    -0xa028(%ebp),%eax
 804a957:	50                   	push   %eax
 804a958:	e8 39 f7 ff ff       	call   804a096 <rio_readlineb>
 804a95d:	83 c4 10             	add    $0x10,%esp
 804a960:	85 c0                	test   %eax,%eax
 804a962:	7f 7f                	jg     804a9e3 <submitr+0x6d8>
 804a964:	8b 85 90 5f ff ff    	mov    -0xa070(%ebp),%eax
 804a96a:	c7 00 45 72 72 6f    	movl   $0x6f727245,(%eax)
 804a970:	c7 40 04 72 3a 20 43 	movl   $0x43203a72,0x4(%eax)
 804a977:	c7 40 08 6c 69 65 6e 	movl   $0x6e65696c,0x8(%eax)
 804a97e:	c7 40 0c 74 20 75 6e 	movl   $0x6e752074,0xc(%eax)
 804a985:	c7 40 10 61 62 6c 65 	movl   $0x656c6261,0x10(%eax)
 804a98c:	c7 40 14 20 74 6f 20 	movl   $0x206f7420,0x14(%eax)
 804a993:	c7 40 18 72 65 61 64 	movl   $0x64616572,0x18(%eax)
 804a99a:	c7 40 1c 20 73 74 61 	movl   $0x61747320,0x1c(%eax)
 804a9a1:	c7 40 20 74 75 73 20 	movl   $0x20737574,0x20(%eax)
 804a9a8:	c7 40 24 6d 65 73 73 	movl   $0x7373656d,0x24(%eax)
 804a9af:	c7 40 28 61 67 65 20 	movl   $0x20656761,0x28(%eax)
 804a9b6:	c7 40 2c 66 72 6f 6d 	movl   $0x6d6f7266,0x2c(%eax)
 804a9bd:	c7 40 30 20 73 65 72 	movl   $0x72657320,0x30(%eax)
 804a9c4:	c7 40 34 76 65 72 00 	movl   $0x726576,0x34(%eax)
 804a9cb:	83 ec 0c             	sub    $0xc,%esp
 804a9ce:	ff b5 b8 5f ff ff    	push   -0xa048(%ebp)
 804a9d4:	e8 97 e8 ff ff       	call   8049270 <close@plt>
 804a9d9:	83 c4 10             	add    $0x10,%esp
 804a9dc:	b8 ff ff ff ff       	mov    $0xffffffff,%eax
 804a9e1:	eb 4f                	jmp    804aa32 <submitr+0x727>
 804a9e3:	83 ec 08             	sub    $0x8,%esp
 804a9e6:	8d 85 e4 7f ff ff    	lea    -0x801c(%ebp),%eax
 804a9ec:	50                   	push   %eax
 804a9ed:	ff b5 90 5f ff ff    	push   -0xa070(%ebp)
 804a9f3:	e8 18 e7 ff ff       	call   8049110 <strcpy@plt>
 804a9f8:	83 c4 10             	add    $0x10,%esp
 804a9fb:	83 ec 0c             	sub    $0xc,%esp
 804a9fe:	ff b5 b8 5f ff ff    	push   -0xa048(%ebp)
 804aa04:	e8 67 e8 ff ff       	call   8049270 <close@plt>
 804aa09:	83 c4 10             	add    $0x10,%esp
 804aa0c:	83 ec 08             	sub    $0x8,%esp
 804aa0f:	68 84 b6 04 08       	push   $0x804b684
 804aa14:	ff b5 90 5f ff ff    	push   -0xa070(%ebp)
 804aa1a:	e8 21 e6 ff ff       	call   8049040 <strcmp@plt>
 804aa1f:	83 c4 10             	add    $0x10,%esp
 804aa22:	85 c0                	test   %eax,%eax
 804aa24:	75 07                	jne    804aa2d <submitr+0x722>
 804aa26:	b8 00 00 00 00       	mov    $0x0,%eax
 804aa2b:	eb 05                	jmp    804aa32 <submitr+0x727>
 804aa2d:	b8 ff ff ff ff       	mov    $0xffffffff,%eax
 804aa32:	8b 55 e4             	mov    -0x1c(%ebp),%edx
 804aa35:	65 2b 15 14 00 00 00 	sub    %gs:0x14,%edx
 804aa3c:	74 05                	je     804aa43 <submitr+0x738>
 804aa3e:	e8 9d e6 ff ff       	call   80490e0 <__stack_chk_fail@plt>
 804aa43:	8d 65 f4             	lea    -0xc(%ebp),%esp
 804aa46:	5b                   	pop    %ebx
 804aa47:	5e                   	pop    %esi
 804aa48:	5f                   	pop    %edi
 804aa49:	5d                   	pop    %ebp
 804aa4a:	c3                   	ret    

0804aa4b <init_timeout>:
 804aa4b:	55                   	push   %ebp
 804aa4c:	89 e5                	mov    %esp,%ebp
 804aa4e:	83 ec 08             	sub    $0x8,%esp
 804aa51:	83 7d 08 00          	cmpl   $0x0,0x8(%ebp)
 804aa55:	74 30                	je     804aa87 <init_timeout+0x3c>
 804aa57:	83 7d 08 00          	cmpl   $0x0,0x8(%ebp)
 804aa5b:	79 07                	jns    804aa64 <init_timeout+0x19>
 804aa5d:	c7 45 08 02 00 00 00 	movl   $0x2,0x8(%ebp)
 804aa64:	83 ec 08             	sub    $0x8,%esp
 804aa67:	68 87 9f 04 08       	push   $0x8049f87
 804aa6c:	6a 0e                	push   $0xe
 804aa6e:	e8 4d e6 ff ff       	call   80490c0 <signal@plt>
 804aa73:	83 c4 10             	add    $0x10,%esp
 804aa76:	8b 45 08             	mov    0x8(%ebp),%eax
 804aa79:	83 ec 0c             	sub    $0xc,%esp
 804aa7c:	50                   	push   %eax
 804aa7d:	e8 4e e6 ff ff       	call   80490d0 <alarm@plt>
 804aa82:	83 c4 10             	add    $0x10,%esp
 804aa85:	eb 01                	jmp    804aa88 <init_timeout+0x3d>
 804aa87:	90                   	nop
 804aa88:	c9                   	leave  
 804aa89:	c3                   	ret    

0804aa8a <init_driver>:
 804aa8a:	55                   	push   %ebp
 804aa8b:	89 e5                	mov    %esp,%ebp
 804aa8d:	83 ec 48             	sub    $0x48,%esp
 804aa90:	8b 45 08             	mov    0x8(%ebp),%eax
 804aa93:	89 45 c4             	mov    %eax,-0x3c(%ebp)
 804aa96:	65 a1 14 00 00 00    	mov    %gs:0x14,%eax
 804aa9c:	89 45 f4             	mov    %eax,-0xc(%ebp)
 804aa9f:	31 c0                	xor    %eax,%eax
 804aaa1:	c7 45 d4 87 b6 04 08 	movl   $0x804b687,-0x2c(%ebp)
 804aaa8:	c7 45 d8 03 d9 00 00 	movl   $0xd903,-0x28(%ebp)
 804aaaf:	83 ec 08             	sub    $0x8,%esp
 804aab2:	6a 01                	push   $0x1
 804aab4:	6a 0d                	push   $0xd
 804aab6:	e8 05 e6 ff ff       	call   80490c0 <signal@plt>
 804aabb:	83 c4 10             	add    $0x10,%esp
 804aabe:	83 ec 08             	sub    $0x8,%esp
 804aac1:	6a 01                	push   $0x1
 804aac3:	6a 1d                	push   $0x1d
 804aac5:	e8 f6 e5 ff ff       	call   80490c0 <signal@plt>
 804aaca:	83 c4 10             	add    $0x10,%esp
 804aacd:	83 ec 08             	sub    $0x8,%esp
 804aad0:	6a 01                	push   $0x1
 804aad2:	6a 1d                	push   $0x1d
 804aad4:	e8 e7 e5 ff ff       	call   80490c0 <signal@plt>
 804aad9:	83 c4 10             	add    $0x10,%esp
 804aadc:	83 ec 04             	sub    $0x4,%esp
 804aadf:	6a 00                	push   $0x0
 804aae1:	6a 01                	push   $0x1
 804aae3:	6a 02                	push   $0x2
 804aae5:	e8 36 e7 ff ff       	call   8049220 <socket@plt>
 804aaea:	83 c4 10             	add    $0x10,%esp
 804aaed:	89 45 dc             	mov    %eax,-0x24(%ebp)
 804aaf0:	83 7d dc 00          	cmpl   $0x0,-0x24(%ebp)
 804aaf4:	79 51                	jns    804ab47 <init_driver+0xbd>
 804aaf6:	8b 45 c4             	mov    -0x3c(%ebp),%eax
 804aaf9:	c7 00 45 72 72 6f    	movl   $0x6f727245,(%eax)
 804aaff:	c7 40 04 72 3a 20 43 	movl   $0x43203a72,0x4(%eax)
 804ab06:	c7 40 08 6c 69 65 6e 	movl   $0x6e65696c,0x8(%eax)
 804ab0d:	c7 40 0c 74 20 75 6e 	movl   $0x6e752074,0xc(%eax)
 804ab14:	c7 40 10 61 62 6c 65 	movl   $0x656c6261,0x10(%eax)
 804ab1b:	c7 40 14 20 74 6f 20 	movl   $0x206f7420,0x14(%eax)
 804ab22:	c7 40 18 63 72 65 61 	movl   $0x61657263,0x18(%eax)
 804ab29:	c7 40 1c 74 65 20 73 	movl   $0x73206574,0x1c(%eax)
 804ab30:	c7 40 20 6f 63 6b 65 	movl   $0x656b636f,0x20(%eax)
 804ab37:	66 c7 40 24 74 00    	movw   $0x74,0x24(%eax)
 804ab3d:	b8 ff ff ff ff       	mov    $0xffffffff,%eax
 804ab42:	e9 05 01 00 00       	jmp    804ac4c <init_driver+0x1c2>
 804ab47:	83 ec 0c             	sub    $0xc,%esp
 804ab4a:	ff 75 d4             	push   -0x2c(%ebp)
 804ab4d:	e8 fe e6 ff ff       	call   8049250 <gethostbyname@plt>
 804ab52:	83 c4 10             	add    $0x10,%esp
 804ab55:	89 45 e0             	mov    %eax,-0x20(%ebp)
 804ab58:	83 7d e0 00          	cmpl   $0x0,-0x20(%ebp)
 804ab5c:	75 2e                	jne    804ab8c <init_driver+0x102>
 804ab5e:	83 ec 04             	sub    $0x4,%esp
 804ab61:	ff 75 d4             	push   -0x2c(%ebp)
 804ab64:	68 60 b5 04 08       	push   $0x804b560
 804ab69:	ff 75 c4             	push   -0x3c(%ebp)
 804ab6c:	e8 9f e6 ff ff       	call   8049210 <sprintf@plt>
 804ab71:	83 c4 10             	add    $0x10,%esp
 804ab74:	83 ec 0c             	sub    $0xc,%esp
 804ab77:	ff 75 dc             	push   -0x24(%ebp)
 804ab7a:	e8 f1 e6 ff ff       	call   8049270 <close@plt>
 804ab7f:	83 c4 10             	add    $0x10,%esp
 804ab82:	b8 ff ff ff ff       	mov    $0xffffffff,%eax
 804ab87:	e9 c0 00 00 00       	jmp    804ac4c <init_driver+0x1c2>
 804ab8c:	8d 45 e4             	lea    -0x1c(%ebp),%eax
 804ab8f:	c7 00 00 00 00 00    	movl   $0x0,(%eax)
 804ab95:	c7 40 04 00 00 00 00 	movl   $0x0,0x4(%eax)
 804ab9c:	c7 40 08 00 00 00 00 	movl   $0x0,0x8(%eax)
 804aba3:	c7 40 0c 00 00 00 00 	movl   $0x0,0xc(%eax)
 804abaa:	66 c7 45 e4 02 00    	movw   $0x2,-0x1c(%ebp)
 804abb0:	8b 45 e0             	mov    -0x20(%ebp),%eax
 804abb3:	8b 40 0c             	mov    0xc(%eax),%eax
 804abb6:	89 c2                	mov    %eax,%edx
 804abb8:	8b 45 e0             	mov    -0x20(%ebp),%eax
 804abbb:	8b 40 10             	mov    0x10(%eax),%eax
 804abbe:	8b 00                	mov    (%eax),%eax
 804abc0:	83 ec 04             	sub    $0x4,%esp
 804abc3:	52                   	push   %edx
 804abc4:	50                   	push   %eax
 804abc5:	8d 45 e4             	lea    -0x1c(%ebp),%eax
 804abc8:	83 c0 04             	add    $0x4,%eax
 804abcb:	50                   	push   %eax
 804abcc:	e8 bf e4 ff ff       	call   8049090 <memmove@plt>
 804abd1:	83 c4 10             	add    $0x10,%esp
 804abd4:	8b 45 d8             	mov    -0x28(%ebp),%eax
 804abd7:	0f b7 c0             	movzwl %ax,%eax
 804abda:	83 ec 0c             	sub    $0xc,%esp
 804abdd:	50                   	push   %eax
 804abde:	e8 0d e5 ff ff       	call   80490f0 <htons@plt>
 804abe3:	83 c4 10             	add    $0x10,%esp
 804abe6:	66 89 45 e6          	mov    %ax,-0x1a(%ebp)
 804abea:	83 ec 04             	sub    $0x4,%esp
 804abed:	6a 10                	push   $0x10
 804abef:	8d 45 e4             	lea    -0x1c(%ebp),%eax
 804abf2:	50                   	push   %eax
 804abf3:	ff 75 dc             	push   -0x24(%ebp)
 804abf6:	e8 65 e6 ff ff       	call   8049260 <connect@plt>
 804abfb:	83 c4 10             	add    $0x10,%esp
 804abfe:	85 c0                	test   %eax,%eax
 804ac00:	79 2b                	jns    804ac2d <init_driver+0x1a3>
 804ac02:	ff 75 d8             	push   -0x28(%ebp)
 804ac05:	ff 75 d4             	push   -0x2c(%ebp)
 804ac08:	68 9c b6 04 08       	push   $0x804b69c
 804ac0d:	ff 75 c4             	push   -0x3c(%ebp)
 804ac10:	e8 fb e5 ff ff       	call   8049210 <sprintf@plt>
 804ac15:	83 c4 10             	add    $0x10,%esp
 804ac18:	83 ec 0c             	sub    $0xc,%esp
 804ac1b:	ff 75 dc             	push   -0x24(%ebp)
 804ac1e:	e8 4d e6 ff ff       	call   8049270 <close@plt>
 804ac23:	83 c4 10             	add    $0x10,%esp
 804ac26:	b8 ff ff ff ff       	mov    $0xffffffff,%eax
 804ac2b:	eb 1f                	jmp    804ac4c <init_driver+0x1c2>
 804ac2d:	83 ec 0c             	sub    $0xc,%esp
 804ac30:	ff 75 dc             	push   -0x24(%ebp)
 804ac33:	e8 38 e6 ff ff       	call   8049270 <close@plt>
 804ac38:	83 c4 10             	add    $0x10,%esp
 804ac3b:	8b 45 c4             	mov    -0x3c(%ebp),%eax
 804ac3e:	66 c7 00 4f 4b       	movw   $0x4b4f,(%eax)
 804ac43:	c6 40 02 00          	movb   $0x0,0x2(%eax)
 804ac47:	b8 00 00 00 00       	mov    $0x0,%eax
 804ac4c:	8b 55 f4             	mov    -0xc(%ebp),%edx
 804ac4f:	65 2b 15 14 00 00 00 	sub    %gs:0x14,%edx
 804ac56:	74 05                	je     804ac5d <init_driver+0x1d3>
 804ac58:	e8 83 e4 ff ff       	call   80490e0 <__stack_chk_fail@plt>
 804ac5d:	c9                   	leave  
 804ac5e:	c3                   	ret    

0804ac5f <driver_post>:
 804ac5f:	55                   	push   %ebp
 804ac60:	89 e5                	mov    %esp,%ebp
 804ac62:	83 ec 18             	sub    $0x18,%esp
 804ac65:	83 7d 10 00          	cmpl   $0x0,0x10(%ebp)
 804ac69:	74 26                	je     804ac91 <driver_post+0x32>
 804ac6b:	83 ec 08             	sub    $0x8,%esp
 804ac6e:	ff 75 0c             	push   0xc(%ebp)
 804ac71:	68 c5 b6 04 08       	push   $0x804b6c5
 804ac76:	e8 05 e4 ff ff       	call   8049080 <printf@plt>
 804ac7b:	83 c4 10             	add    $0x10,%esp
 804ac7e:	8b 45 14             	mov    0x14(%ebp),%eax
 804ac81:	66 c7 00 4f 4b       	movw   $0x4b4f,(%eax)
 804ac86:	c6 40 02 00          	movb   $0x0,0x2(%eax)
 804ac8a:	b8 00 00 00 00       	mov    $0x0,%eax
 804ac8f:	eb 54                	jmp    804ace5 <driver_post+0x86>
 804ac91:	83 7d 08 00          	cmpl   $0x0,0x8(%ebp)
 804ac95:	74 3d                	je     804acd4 <driver_post+0x75>
 804ac97:	8b 45 08             	mov    0x8(%ebp),%eax
 804ac9a:	0f b6 00             	movzbl (%eax),%eax
 804ac9d:	0f b6 c0             	movzbl %al,%eax
 804aca0:	85 c0                	test   %eax,%eax
 804aca2:	74 30                	je     804acd4 <driver_post+0x75>
 804aca4:	83 ec 04             	sub    $0x4,%esp
 804aca7:	ff 75 14             	push   0x14(%ebp)
 804acaa:	ff 75 0c             	push   0xc(%ebp)
 804acad:	68 dc b6 04 08       	push   $0x804b6dc
 804acb2:	ff 75 08             	push   0x8(%ebp)
 804acb5:	68 e3 b6 04 08       	push   $0x804b6e3
 804acba:	68 03 d9 00 00       	push   $0xd903
 804acbf:	68 87 b6 04 08       	push   $0x804b687
 804acc4:	e8 42 f6 ff ff       	call   804a30b <submitr>
 804acc9:	83 c4 20             	add    $0x20,%esp
 804accc:	89 45 f4             	mov    %eax,-0xc(%ebp)
 804accf:	8b 45 f4             	mov    -0xc(%ebp),%eax
 804acd2:	eb 11                	jmp    804ace5 <driver_post+0x86>
 804acd4:	8b 45 14             	mov    0x14(%ebp),%eax
 804acd7:	66 c7 00 4f 4b       	movw   $0x4b4f,(%eax)
 804acdc:	c6 40 02 00          	movb   $0x0,0x2(%eax)
 804ace0:	b8 00 00 00 00       	mov    $0x0,%eax
 804ace5:	c9                   	leave  
 804ace6:	c3                   	ret    

0804ace7 <hash>:
 804ace7:	55                   	push   %ebp
 804ace8:	89 e5                	mov    %esp,%ebp
 804acea:	83 ec 10             	sub    $0x10,%esp
 804aced:	c7 45 fc 00 00 00 00 	movl   $0x0,-0x4(%ebp)
 804acf4:	eb 1a                	jmp    804ad10 <hash+0x29>
 804acf6:	8b 45 fc             	mov    -0x4(%ebp),%eax
 804acf9:	6b c8 67             	imul   $0x67,%eax,%ecx
 804acfc:	8b 45 08             	mov    0x8(%ebp),%eax
 804acff:	8d 50 01             	lea    0x1(%eax),%edx
 804ad02:	89 55 08             	mov    %edx,0x8(%ebp)
 804ad05:	0f b6 00             	movzbl (%eax),%eax
 804ad08:	0f be c0             	movsbl %al,%eax
 804ad0b:	01 c8                	add    %ecx,%eax
 804ad0d:	89 45 fc             	mov    %eax,-0x4(%ebp)
 804ad10:	8b 45 08             	mov    0x8(%ebp),%eax
 804ad13:	0f b6 00             	movzbl (%eax),%eax
 804ad16:	84 c0                	test   %al,%al
 804ad18:	75 dc                	jne    804acf6 <hash+0xf>
 804ad1a:	8b 45 fc             	mov    -0x4(%ebp),%eax
 804ad1d:	c9                   	leave  
 804ad1e:	c3                   	ret    

0804ad1f <check>:
 804ad1f:	55                   	push   %ebp
 804ad20:	89 e5                	mov    %esp,%ebp
 804ad22:	83 ec 10             	sub    $0x10,%esp
 804ad25:	8b 45 08             	mov    0x8(%ebp),%eax
 804ad28:	c1 e8 1c             	shr    $0x1c,%eax
 804ad2b:	85 c0                	test   %eax,%eax
 804ad2d:	75 07                	jne    804ad36 <check+0x17>
 804ad2f:	b8 00 00 00 00       	mov    $0x0,%eax
 804ad34:	eb 33                	jmp    804ad69 <check+0x4a>
 804ad36:	c7 45 fc 00 00 00 00 	movl   $0x0,-0x4(%ebp)
 804ad3d:	eb 1f                	jmp    804ad5e <check+0x3f>
 804ad3f:	8b 45 fc             	mov    -0x4(%ebp),%eax
 804ad42:	8b 55 08             	mov    0x8(%ebp),%edx
 804ad45:	89 c1                	mov    %eax,%ecx
 804ad47:	d3 ea                	shr    %cl,%edx
 804ad49:	89 d0                	mov    %edx,%eax
 804ad4b:	0f b6 c0             	movzbl %al,%eax
 804ad4e:	83 f8 0a             	cmp    $0xa,%eax
 804ad51:	75 07                	jne    804ad5a <check+0x3b>
 804ad53:	b8 00 00 00 00       	mov    $0x0,%eax
 804ad58:	eb 0f                	jmp    804ad69 <check+0x4a>
 804ad5a:	83 45 fc 08          	addl   $0x8,-0x4(%ebp)
 804ad5e:	83 7d fc 1f          	cmpl   $0x1f,-0x4(%ebp)
 804ad62:	7e db                	jle    804ad3f <check+0x20>
 804ad64:	b8 01 00 00 00       	mov    $0x1,%eax
 804ad69:	c9                   	leave  
 804ad6a:	c3                   	ret    

0804ad6b <gencookie>:
 804ad6b:	55                   	push   %ebp
 804ad6c:	89 e5                	mov    %esp,%ebp
 804ad6e:	83 ec 18             	sub    $0x18,%esp
 804ad71:	ff 75 08             	push   0x8(%ebp)
 804ad74:	e8 6e ff ff ff       	call   804ace7 <hash>
 804ad79:	83 c4 04             	add    $0x4,%esp
 804ad7c:	83 ec 0c             	sub    $0xc,%esp
 804ad7f:	50                   	push   %eax
 804ad80:	e8 db e3 ff ff       	call   8049160 <srand@plt>
 804ad85:	83 c4 10             	add    $0x10,%esp
 804ad88:	e8 63 e4 ff ff       	call   80491f0 <rand@plt>
 804ad8d:	89 45 f4             	mov    %eax,-0xc(%ebp)
 804ad90:	83 ec 0c             	sub    $0xc,%esp
 804ad93:	ff 75 f4             	push   -0xc(%ebp)
 804ad96:	e8 84 ff ff ff       	call   804ad1f <check>
 804ad9b:	83 c4 10             	add    $0x10,%esp
 804ad9e:	85 c0                	test   %eax,%eax
 804ada0:	74 e6                	je     804ad88 <gencookie+0x1d>
 804ada2:	8b 45 f4             	mov    -0xc(%ebp),%eax
 804ada5:	c9                   	leave  
 804ada6:	c3                   	ret    

Disassembly of section .fini:

0804ada8 <_fini>:
 804ada8:	f3 0f 1e fb          	endbr32 
 804adac:	53                   	push   %ebx
 804adad:	83 ec 08             	sub    $0x8,%esp
 804adb0:	e8 2b e5 ff ff       	call   80492e0 <__x86.get_pc_thunk.bx>
 804adb5:	81 c3 4b 22 00 00    	add    $0x224b,%ebx
 804adbb:	83 c4 08             	add    $0x8,%esp
 804adbe:	5b                   	pop    %ebx
 804adbf:	c3                   	ret    
